Archive member included to satisfy reference by file (symbol)

/usr/lib/gcc/arm-none-eabi/4.9.3/../../../arm-none-eabi/lib/armv7e-m/fpu/libg.a(lib_a-errno.o)
                              build/objs/syscalls.o (__errno)
/usr/lib/gcc/arm-none-eabi/4.9.3/../../../arm-none-eabi/lib/armv7e-m/fpu/libg.a(lib_a-impure.o)
                              /usr/lib/gcc/arm-none-eabi/4.9.3/../../../arm-none-eabi/lib/armv7e-m/fpu/libg.a(lib_a-errno.o) (_impure_ptr)
/usr/lib/gcc/arm-none-eabi/4.9.3/../../../arm-none-eabi/lib/armv7e-m/fpu/libg.a(lib_a-malloc.o)
                              build/objs/usbd_cdc.o (malloc)
/usr/lib/gcc/arm-none-eabi/4.9.3/../../../arm-none-eabi/lib/armv7e-m/fpu/libg.a(lib_a-mallocr.o)
                              /usr/lib/gcc/arm-none-eabi/4.9.3/../../../arm-none-eabi/lib/armv7e-m/fpu/libg.a(lib_a-malloc.o) (_malloc_r)
/usr/lib/gcc/arm-none-eabi/4.9.3/../../../arm-none-eabi/lib/armv7e-m/fpu/libg.a(lib_a-mlock.o)
                              /usr/lib/gcc/arm-none-eabi/4.9.3/../../../arm-none-eabi/lib/armv7e-m/fpu/libg.a(lib_a-mallocr.o) (__malloc_lock)
/usr/lib/gcc/arm-none-eabi/4.9.3/../../../arm-none-eabi/lib/armv7e-m/fpu/libg.a(lib_a-sbrkr.o)
                              /usr/lib/gcc/arm-none-eabi/4.9.3/../../../arm-none-eabi/lib/armv7e-m/fpu/libg.a(lib_a-mallocr.o) (_sbrk_r)
/usr/lib/gcc/arm-none-eabi/4.9.3/../../../arm-none-eabi/lib/armv7e-m/fpu/libg.a(lib_a-freer.o)
                              /usr/lib/gcc/arm-none-eabi/4.9.3/../../../arm-none-eabi/lib/armv7e-m/fpu/libg.a(lib_a-malloc.o) (_free_r)
/usr/lib/gcc/arm-none-eabi/4.9.3/../../../arm-none-eabi/lib/armv7e-m/fpu/libg.a(lib_a-reent.o)
                              /usr/lib/gcc/arm-none-eabi/4.9.3/../../../arm-none-eabi/lib/armv7e-m/fpu/libg.a(lib_a-sbrkr.o) (errno)

Allocating common symbols
Common symbol       size              file

PCD8544_y           0x1               build/objs/pcd8544.o
hUsbDeviceFS        0x224             build/objs/usb_device.o
hUsbDevice_0        0x4               build/objs/usbd_cdc_if.o
PCD8544_x           0x1               build/objs/pcd8544.o
PCD8544_Buffer      0x1f8             build/objs/pcd8544.o
errno               0x4               /usr/lib/gcc/arm-none-eabi/4.9.3/../../../arm-none-eabi/lib/armv7e-m/fpu/libg.a(lib_a-reent.o)
hpcd_USB_OTG_FS     0x3b8             build/objs/usbd_conf.o
uwTick              0x4               build/objs/stm32f4xx_hal.o
pFlash              0x20              build/objs/stm32f4xx_hal_flash.o
UserRxBufferFS      0x4               build/objs/usbd_cdc_if.o
UserTxBufferFS      0x4               build/objs/usbd_cdc_if.o
hSPI                0x58              build/objs/pcd8544.o
hTIM                0x3c              build/objs/pcd8544.o
USBD_StrDesc        0x200             build/objs/usbd_desc.o
TimHandle           0x3c              build/objs/stm32f4xx_hal_timebase_tim_template.o

Memory Configuration

Name             Origin             Length             Attributes
FLASH            0x0000000008000000 0x0000000000100000 xr
RAM              0x0000000020000000 0x0000000000020000 xrw
CCMRAM           0x0000000010000000 0x0000000000010000 rw
*default*        0x0000000000000000 0xffffffffffffffff

Linker script and memory map

LOAD build/objs/usbd_cdc_if.o
LOAD build/objs/usbd_conf.o
LOAD build/objs/syscalls.o
LOAD build/objs/stm32f4xx_hal_msp.o
LOAD build/objs/gpio.o
LOAD build/objs/main.o
LOAD build/objs/stm32f4xx_it.o
LOAD build/objs/usb_device.o
LOAD build/objs/usbd_desc.o
LOAD build/objs/pcd8544.o
LOAD build/objs/stm32f4xx_hal_dsi.o
LOAD build/objs/stm32f4xx_hal_pcd.o
LOAD build/objs/stm32f4xx_hal_irda.o
LOAD build/objs/stm32f4xx_ll_fsmc.o
LOAD build/objs/stm32f4xx_hal_cec.o
LOAD build/objs/stm32f4xx_hal_timebase_tim_template.o
LOAD build/objs/stm32f4xx_ll_usb.o
LOAD build/objs/stm32f4xx_hal.o
LOAD build/objs/stm32f4xx_hal_dcmi_ex.o
LOAD build/objs/stm32f4xx_hal_flash_ex.o
LOAD build/objs/stm32f4xx_hal_cryp.o
LOAD build/objs/stm32f4xx_hal_rng.o
LOAD build/objs/stm32f4xx_hal_nand.o
LOAD build/objs/stm32f4xx_hal_gpio.o
LOAD build/objs/stm32f4xx_hal_ltdc.o
LOAD build/objs/stm32f4xx_hal_hcd.o
LOAD build/objs/stm32f4xx_hal_pcd_ex.o
LOAD build/objs/stm32f4xx_hal_adc.o
LOAD build/objs/stm32f4xx_hal_adc_ex.o
LOAD build/objs/stm32f4xx_hal_lptim.o
LOAD build/objs/stm32f4xx_hal_spi.o
LOAD build/objs/stm32f4xx_hal_i2c.o
LOAD build/objs/stm32f4xx_hal_fmpi2c.o
LOAD build/objs/stm32f4xx_hal_smartcard.o
LOAD build/objs/stm32f4xx_hal_pccard.o
LOAD build/objs/stm32f4xx_hal_dma2d.o
LOAD build/objs/stm32f4xx_hal_sai.o
LOAD build/objs/stm32f4xx_hal_cryp_ex.o
LOAD build/objs/stm32f4xx_hal_rcc_ex.o
LOAD build/objs/stm32f4xx_ll_fmc.o
LOAD build/objs/stm32f4xx_hal_ltdc_ex.o
LOAD build/objs/stm32f4xx_hal_flash_ramfunc.o
LOAD build/objs/stm32f4xx_hal_cortex.o
LOAD build/objs/stm32f4xx_hal_iwdg.o
LOAD build/objs/stm32f4xx_hal_uart.o
LOAD build/objs/stm32f4xx_hal_tim_ex.o
LOAD build/objs/stm32f4xx_hal_i2c_ex.o
LOAD build/objs/stm32f4xx_hal_dma.o
LOAD build/objs/stm32f4xx_hal_dac.o
LOAD build/objs/stm32f4xx_hal_spdifrx.o
LOAD build/objs/stm32f4xx_hal_fmpi2c_ex.o
LOAD build/objs/stm32f4xx_ll_sdmmc.o
LOAD build/objs/stm32f4xx_hal_i2s_ex.o
LOAD build/objs/stm32f4xx_hal_can.o
LOAD build/objs/stm32f4xx_hal_nor.o
LOAD build/objs/stm32f4xx_hal_pwr.o
LOAD build/objs/stm32f4xx_hal_rtc.o
LOAD build/objs/stm32f4xx_hal_qspi.o
LOAD build/objs/stm32f4xx_hal_hash_ex.o
LOAD build/objs/stm32f4xx_hal_i2s.o
LOAD build/objs/stm32f4xx_hal_sram.o
LOAD build/objs/stm32f4xx_hal_hash.o
LOAD build/objs/stm32f4xx_hal_eth.o
LOAD build/objs/stm32f4xx_hal_tim.o
LOAD build/objs/stm32f4xx_hal_dma_ex.o
LOAD build/objs/stm32f4xx_hal_sd.o
LOAD build/objs/stm32f4xx_hal_sai_ex.o
LOAD build/objs/stm32f4xx_hal_rcc.o
LOAD build/objs/stm32f4xx_hal_wwdg.o
LOAD build/objs/stm32f4xx_hal_dac_ex.o
LOAD build/objs/stm32f4xx_hal_rtc_ex.o
LOAD build/objs/stm32f4xx_hal_pwr_ex.o
LOAD build/objs/stm32f4xx_hal_dcmi.o
LOAD build/objs/stm32f4xx_hal_sdram.o
LOAD build/objs/stm32f4xx_hal_flash.o
LOAD build/objs/stm32f4xx_hal_crc.o
LOAD build/objs/stm32f4xx_hal_usart.o
LOAD build/objs/stm32f4_discovery.o
LOAD build/objs/system_stm32f4xx.o
LOAD build/objs/usbd_core.o
LOAD build/objs/usbd_ctlreq.o
LOAD build/objs/usbd_ioreq.o
LOAD build/objs/usbd_cdc_if_template.o
LOAD build/objs/usbd_cdc.o
LOAD build/objs/startup_stm32f407xx.o
START GROUP
LOAD /usr/lib/gcc/arm-none-eabi/4.9.3/armv7e-m/fpu/libgcc.a
LOAD /usr/lib/gcc/arm-none-eabi/4.9.3/../../../arm-none-eabi/lib/armv7e-m/fpu/libg.a
LOAD /usr/lib/gcc/arm-none-eabi/4.9.3/../../../arm-none-eabi/lib/armv7e-m/fpu/libc.a
END GROUP
                0x000000002001ffff                _estack = 0x2001ffff
                0x0000000000000200                _Min_Heap_Size = 0x200
                0x0000000000000400                _Min_Stack_Size = 0x400

.isr_vector     0x0000000008000000      0x188
                0x0000000008000000                . = ALIGN (0x4)
 *(.isr_vector)
 .isr_vector    0x0000000008000000      0x188 build/objs/startup_stm32f407xx.o
                0x0000000008000000                g_pfnVectors
                0x0000000008000188                . = ALIGN (0x4)

.text           0x0000000008000188    0x16c44
                0x0000000008000188                . = ALIGN (0x4)
 *(.text)
 .text          0x0000000008000188      0x1a4 build/objs/usbd_cdc_if.o
                0x00000000080002d8                CDC_Transmit_FS
 .text          0x000000000800032c      0x588 build/objs/usbd_conf.o
                0x000000000800032c                HAL_PCD_MspInit
                0x00000000080003a8                HAL_PCD_MspDeInit
                0x00000000080003e4                HAL_PCD_SetupStageCallback
                0x0000000008000408                HAL_PCD_DataOutStageCallback
                0x0000000008000440                HAL_PCD_DataInStageCallback
                0x0000000008000474                HAL_PCD_SOFCallback
                0x0000000008000490                HAL_PCD_ResetCallback
                0x00000000080004e0                HAL_PCD_SuspendCallback
                0x000000000800052c                HAL_PCD_ResumeCallback
                0x0000000008000548                HAL_PCD_ISOOUTIncompleteCallback
                0x000000000800056c                HAL_PCD_ISOINIncompleteCallback
                0x0000000008000590                HAL_PCD_ConnectCallback
                0x00000000080005ac                HAL_PCD_DisconnectCallback
                0x00000000080005c8                USBD_LL_Init
                0x000000000800065c                USBD_LL_DeInit
                0x000000000800067c                USBD_LL_Start
                0x000000000800069c                USBD_LL_Stop
                0x00000000080006bc                USBD_LL_OpenEP
                0x00000000080006f0                USBD_LL_CloseEP
                0x0000000008000718                USBD_LL_FlushEP
                0x0000000008000740                USBD_LL_StallEP
                0x0000000008000768                USBD_LL_ClearStallEP
                0x0000000008000790                USBD_LL_IsStallEP
                0x00000000080007e8                USBD_LL_SetUSBAddress
                0x0000000008000810                USBD_LL_Transmit
                0x0000000008000844                USBD_LL_PrepareReceive
                0x0000000008000878                USBD_LL_GetRxDataSize
                0x00000000080008a0                USBD_LL_Delay
 .text          0x00000000080008b4      0x2b8 build/objs/syscalls.o
                0x00000000080008b4                _sbrk
                0x0000000008000920                _gettimeofday
                0x000000000800094c                initialise_monitor_handles
                0x0000000008000958                _getpid
                0x0000000008000968                _kill
                0x0000000008000988                _exit
                0x000000000800099c                _write
                0x00000000080009d4                _close
                0x00000000080009ec                _fstat
                0x0000000008000a0c                _isatty
                0x0000000008000a24                _lseek
                0x0000000008000a40                _read
                0x0000000008000a7c                _open
                0x0000000008000a98                _wait
                0x0000000008000ab8                _unlink
                0x0000000008000ad8                _times
                0x0000000008000af0                _stat
                0x0000000008000b10                _link
                0x0000000008000b30                _fork
                0x0000000008000b48                _execve
 .text          0x0000000008000b6c       0x48 build/objs/stm32f4xx_hal_msp.o
                0x0000000008000b6c                HAL_MspInit
 .text          0x0000000008000bb4       0x4c build/objs/gpio.o
                0x0000000008000bb4                MX_GPIO_Init
 .text          0x0000000008000c00      0x164 build/objs/main.o
                0x0000000008000c00                main
                0x0000000008000ca0                SystemClock_Config
 .text          0x0000000008000d64       0x20 build/objs/stm32f4xx_it.o
                0x0000000008000d64                SysTick_Handler
                0x0000000008000d74                OTG_FS_IRQHandler
 .text          0x0000000008000d84       0x38 build/objs/usb_device.o
                0x0000000008000d84                MX_USB_DEVICE_Init
 .text          0x0000000008000dbc      0x160 build/objs/usbd_desc.o
                0x0000000008000dbc                USBD_FS_DeviceDescriptor
                0x0000000008000de0                USBD_FS_LangIDStrDescriptor
                0x0000000008000e04                USBD_FS_ProductStrDescriptor
                0x0000000008000e40                USBD_FS_ManufacturerStrDescriptor
                0x0000000008000e68                USBD_FS_SerialStrDescriptor
                0x0000000008000ea4                USBD_FS_ConfigStrDescriptor
                0x0000000008000ee0                USBD_FS_InterfaceStrDescriptor
 .text          0x0000000008000f1c      0xed4 build/objs/pcd8544.o
                0x0000000008000f1c                PCD8544_InitIO
                0x0000000008001174                PCD8544_send
                0x00000000080011b4                PCD8544_Pin
                0x0000000008001220                PCD8544_Delay
                0x0000000008001248                PCD8544_Init
                0x00000000080012c0                PCD8544_Write
                0x0000000008001300                PCD8544_SetContrast
                0x000000000800133c                PCD8544_DrawPixel
                0x00000000080013f8                PCD8544_Invert
                0x0000000008001420                PCD8544_Clear
                0x000000000800146c                PCD8544_Home
                0x0000000008001484                PCD8544_Refresh
                0x0000000008001540                PCD8544_UpdateArea
                0x00000000080015b8                PCD8544_GotoXY
                0x00000000080015e8                PCD8544_Putc
                0x000000000800173c                PCD8544_Puts
                0x0000000008001774                PCD8544_DrawLine
                0x0000000008001930                PCD8544_DrawRectangle
                0x000000000800199c                PCD8544_DrawFilledRectangle
                0x00000000080019e4                PCD8544_DrawCircle
                0x0000000008001bd8                PCD8544_DrawFilledCircle
                0x0000000008001dbc                PCD8544_SetBacklight
 .text          0x0000000008001df0        0x0 build/objs/stm32f4xx_hal_dsi.o
 .text          0x0000000008001df0     0x1290 build/objs/stm32f4xx_hal_pcd.o
                0x0000000008001df0                HAL_PCD_Init
                0x0000000008002000                HAL_PCD_DeInit
                0x0000000008002060                HAL_PCD_Start
                0x00000000080020a4                HAL_PCD_Stop
                0x00000000080020f4                HAL_PCD_IRQHandler
                0x0000000008002980                HAL_PCD_DevConnect
                0x00000000080029bc                HAL_PCD_DevDisconnect
                0x00000000080029f8                HAL_PCD_SetAddress
                0x0000000008002a3c                HAL_PCD_EP_Open
                0x0000000008002b0c                HAL_PCD_EP_Close
                0x0000000008002ba0                HAL_PCD_EP_Receive
                0x0000000008002c58                HAL_PCD_EP_GetRxCount
                0x0000000008002c8c                HAL_PCD_EP_Transmit
                0x0000000008002d40                HAL_PCD_EP_SetStall
                0x0000000008002df8                HAL_PCD_EP_ClrStall
                0x0000000008002e8c                HAL_PCD_EP_Flush
                0x0000000008002ee8                HAL_PCD_ActivateRemoteWakeup
                0x0000000008002f2c                HAL_PCD_DeActivateRemoteWakeup
                0x0000000008002f60                HAL_PCD_GetState
 .text          0x0000000008003080        0x0 build/objs/stm32f4xx_hal_irda.o
 .text          0x0000000008003080        0x0 build/objs/stm32f4xx_ll_fsmc.o
 .text          0x0000000008003080        0x0 build/objs/stm32f4xx_hal_cec.o
 .text          0x0000000008003080      0x12c build/objs/stm32f4xx_hal_timebase_tim_template.o
                0x0000000008003080                HAL_InitTick
                0x0000000008003148                HAL_SuspendTick
                0x0000000008003168                HAL_ResumeTick
                0x0000000008003188                HAL_TIM_PeriodElapsedCallback
                0x000000000800319c                TIM6_DAC_IRQHandler
 .text          0x00000000080031ac     0x2180 build/objs/stm32f4xx_ll_usb.o
                0x00000000080031ac                USB_CoreInit
                0x0000000008003250                USB_EnableGlobalInt
                0x0000000008003274                USB_DisableGlobalInt
                0x0000000008003298                USB_SetCurrentMode
                0x00000000080032e8                USB_DevInit
                0x0000000008003540                USB_FlushTxFifo
                0x000000000800358c                USB_FlushRxFifo
                0x00000000080035d0                USB_SetDevSpeed
                0x0000000008003600                USB_GetDevSpeed
                0x000000000800366c                USB_ActivateEndpoint
                0x0000000008003780                USB_ActivateDedicatedEndpoint
                0x0000000008003908                USB_DeactivateEndpoint
                0x0000000008003a00                USB_DeactivateDedicatedEndpoint
                0x0000000008003ab4                USB_EPStartXfer
                0x0000000008003f38                USB_EP0StartXfer
                0x00000000080041f4                USB_WritePacket
                0x0000000008004260                USB_ReadPacket
                0x00000000080042b0                USB_EPSetStall
                0x0000000008004394                USB_EPClearStall
                0x0000000008004470                USB_StopDevice
                0x00000000080044f8                USB_SetDevAddress
                0x0000000008004544                USB_DevConnect
                0x0000000008004574                USB_DevDisconnect
                0x00000000080045a4                USB_ReadInterrupts
                0x00000000080045d0                USB_ReadDevAllOutEpInterrupt
                0x0000000008004600                USB_ReadDevAllInEpInterrupt
                0x0000000008004630                USB_ReadDevOutEPInterrupt
                0x0000000008004668                USB_ReadDevInEPInterrupt
                0x00000000080046bc                USB_ClearInterrupts
                0x00000000080046dc                USB_GetMode
                0x00000000080046f8                USB_ActivateSetup
                0x0000000008004764                USB_EP0_OutStart
                0x0000000008004858                USB_HostInit
                0x00000000080049b0                USB_InitFSLSPClkSel
                0x0000000008004a24                USB_ResetPort
                0x0000000008004a70                USB_DriveVbus
                0x0000000008004adc                USB_GetHostSpeed
                0x0000000008004b04                USB_GetCurrentFrame
                0x0000000008004b24                USB_HC_Init
                0x0000000008004d1c                USB_HC_StartXfer
                0x0000000008004f94                USB_HC_ReadInterrupt
                0x0000000008004fb4                USB_HC_Halt
                0x00000000080051b4                USB_DoPing
                0x000000000800522c                USB_StopHost
 .text          0x000000000800532c      0x2dc build/objs/stm32f4xx_hal.o
                0x000000000800532c                HAL_Init
                0x0000000008005370                HAL_DeInit
                0x00000000080053d4                HAL_MspDeInit
                0x0000000008005418                HAL_IncTick
                0x0000000008005434                HAL_GetTick
                0x000000000800544c                HAL_Delay
                0x00000000080054b0                HAL_GetHalVersion
                0x00000000080054c4                HAL_GetREVID
                0x00000000080054dc                HAL_GetDEVID
                0x00000000080054f8                HAL_DBGMCU_EnableDBGSleepMode
                0x0000000008005514                HAL_DBGMCU_DisableDBGSleepMode
                0x0000000008005530                HAL_DBGMCU_EnableDBGStopMode
                0x000000000800554c                HAL_DBGMCU_DisableDBGStopMode
                0x0000000008005568                HAL_DBGMCU_EnableDBGStandbyMode
                0x0000000008005584                HAL_DBGMCU_DisableDBGStandbyMode
                0x00000000080055a0                HAL_EnableCompensationCell
                0x00000000080055d4                HAL_DisableCompensationCell
 .text          0x0000000008005608        0x0 build/objs/stm32f4xx_hal_dcmi_ex.o
 .text          0x0000000008005608      0x60c build/objs/stm32f4xx_hal_flash_ex.o
                0x0000000008005608                HAL_FLASHEx_Erase
                0x00000000080056e8                HAL_FLASHEx_Erase_IT
                0x0000000008005794                HAL_FLASHEx_OBProgram
                0x0000000008005874                HAL_FLASHEx_OBGetConfig
                0x00000000080058fc                FLASH_Erase_Sector
                0x0000000008005b8c                FLASH_FlushCaches
 .text          0x0000000008005c14        0x0 build/objs/stm32f4xx_hal_cryp.o
 .text          0x0000000008005c14        0x0 build/objs/stm32f4xx_hal_rng.o
 .text          0x0000000008005c14        0x0 build/objs/stm32f4xx_hal_nand.o
 .text          0x0000000008005c14      0x658 build/objs/stm32f4xx_hal_gpio.o
                0x0000000008005c14                HAL_GPIO_Init
                0x0000000008005f50                HAL_GPIO_DeInit
                0x0000000008006154                HAL_GPIO_ReadPin
                0x0000000008006184                HAL_GPIO_WritePin
                0x00000000080061b4                HAL_GPIO_TogglePin
                0x00000000080061d8                HAL_GPIO_LockPin
                0x0000000008006228                HAL_GPIO_EXTI_IRQHandler
                0x0000000008006258                HAL_GPIO_EXTI_Callback
 .text          0x000000000800626c        0x0 build/objs/stm32f4xx_hal_ltdc.o
 .text          0x000000000800626c        0x0 build/objs/stm32f4xx_hal_hcd.o
 .text          0x000000000800626c       0xbc build/objs/stm32f4xx_hal_pcd_ex.o
                0x000000000800626c                HAL_PCDEx_SetTxFiFo
                0x0000000008006304                HAL_PCDEx_SetRxFiFo
 .text          0x0000000008006328        0x0 build/objs/stm32f4xx_hal_adc.o
 .text          0x0000000008006328        0x0 build/objs/stm32f4xx_hal_adc_ex.o
 .text          0x0000000008006328        0x0 build/objs/stm32f4xx_hal_lptim.o
 .text          0x0000000008006328     0x1f30 build/objs/stm32f4xx_hal_spi.o
                0x0000000008006328                HAL_SPI_Init
                0x00000000080063fc                HAL_SPI_DeInit
                0x000000000800644c                HAL_SPI_MspInit
                0x0000000008006460                HAL_SPI_MspDeInit
                0x0000000008006474                HAL_SPI_Transmit
                0x00000000080066ac                HAL_SPI_Receive
                0x00000000080069bc                HAL_SPI_TransmitReceive
                0x0000000008006cec                HAL_SPI_Transmit_IT
                0x0000000008006e34                HAL_SPI_Receive_IT
                0x0000000008006f88                HAL_SPI_TransmitReceive_IT
                0x00000000080070d8                HAL_SPI_Transmit_DMA
                0x000000000800722c                HAL_SPI_Receive_DMA
                0x00000000080073a4                HAL_SPI_TransmitReceive_DMA
                0x0000000008007578                HAL_SPI_DMAPause
                0x00000000080075bc                HAL_SPI_DMAResume
                0x0000000008007600                HAL_SPI_DMAStop
                0x0000000008007650                HAL_SPI_IRQHandler
                0x000000000800777c                HAL_SPI_TxCpltCallback
                0x0000000008007790                HAL_SPI_RxCpltCallback
                0x00000000080077a4                HAL_SPI_TxRxCpltCallback
                0x00000000080077b8                HAL_SPI_TxHalfCpltCallback
                0x00000000080077cc                HAL_SPI_RxHalfCpltCallback
                0x00000000080077e0                HAL_SPI_TxRxHalfCpltCallback
                0x00000000080077f4                HAL_SPI_ErrorCallback
                0x0000000008007808                HAL_SPI_GetState
                0x0000000008007824                HAL_SPI_GetError
 .text          0x0000000008008258     0x4618 build/objs/stm32f4xx_hal_i2c.o
                0x0000000008008258                HAL_I2C_Init
                0x0000000008008418                HAL_I2C_DeInit
                0x0000000008008478                HAL_I2C_MspInit
                0x000000000800848c                HAL_I2C_MspDeInit
                0x00000000080084a0                HAL_I2C_Master_Transmit
                0x0000000008008644                HAL_I2C_Master_Receive
                0x0000000008008984                HAL_I2C_Slave_Transmit
                0x0000000008008b54                HAL_I2C_Slave_Receive
                0x0000000008008d1c                HAL_I2C_Master_Transmit_IT
                0x0000000008008e64                HAL_I2C_Master_Receive_IT
                0x000000000800904c                HAL_I2C_Master_Sequential_Transmit_IT
                0x00000000080091ac                HAL_I2C_Master_Sequential_Receive_IT
                0x0000000008009418                HAL_I2C_Slave_Transmit_IT
                0x00000000080094ec                HAL_I2C_Slave_Receive_IT
                0x00000000080095c0                HAL_I2C_Slave_Sequential_Transmit_IT
                0x0000000008009680                HAL_I2C_Slave_Sequential_Receive_IT
                0x0000000008009740                HAL_I2C_EnableListen_IT
                0x0000000008009790                HAL_I2C_DisableListen_IT
                0x0000000008009808                HAL_I2C_Master_Transmit_DMA
                0x00000000080099c4                HAL_I2C_Master_Receive_DMA
                0x0000000008009b8c                HAL_I2C_Master_Abort_IT
                0x0000000008009c34                HAL_I2C_Slave_Transmit_DMA
                0x0000000008009dc0                HAL_I2C_Slave_Receive_DMA
                0x0000000008009ef8                HAL_I2C_Mem_Write
                0x000000000800a090                HAL_I2C_Mem_Read
                0x000000000800a3cc                HAL_I2C_Mem_Write_IT
                0x000000000800a508                HAL_I2C_Mem_Read_IT
                0x000000000800a6fc                HAL_I2C_Mem_Write_DMA
                0x000000000800a89c                HAL_I2C_Mem_Read_DMA
                0x000000000800aa74                HAL_I2C_IsDeviceReady
                0x000000000800aca0                HAL_I2C_EV_IRQHandler
                0x000000000800af84                HAL_I2C_ER_IRQHandler
                0x000000000800b1cc                HAL_I2C_MasterTxCpltCallback
                0x000000000800b1e0                HAL_I2C_MasterRxCpltCallback
                0x000000000800b1f4                HAL_I2C_SlaveTxCpltCallback
                0x000000000800b208                HAL_I2C_SlaveRxCpltCallback
                0x000000000800b21c                HAL_I2C_AddrCallback
                0x000000000800b238                HAL_I2C_ListenCpltCallback
                0x000000000800b24c                HAL_I2C_MemTxCpltCallback
                0x000000000800b260                HAL_I2C_MemRxCpltCallback
                0x000000000800b274                HAL_I2C_ErrorCallback
                0x000000000800b288                HAL_I2C_GetState
                0x000000000800b2a4                HAL_I2C_GetMode
                0x000000000800b2c0                HAL_I2C_GetError
 .text          0x000000000800c870        0x0 build/objs/stm32f4xx_hal_fmpi2c.o
 .text          0x000000000800c870        0x0 build/objs/stm32f4xx_hal_smartcard.o
 .text          0x000000000800c870        0x0 build/objs/stm32f4xx_hal_pccard.o
 .text          0x000000000800c870        0x0 build/objs/stm32f4xx_hal_dma2d.o
 .text          0x000000000800c870        0x0 build/objs/stm32f4xx_hal_sai.o
 .text          0x000000000800c870        0x0 build/objs/stm32f4xx_hal_cryp_ex.o
 .text          0x000000000800c870      0x2cc build/objs/stm32f4xx_hal_rcc_ex.o
                0x000000000800c870                HAL_RCC_DeInit
                0x000000000800c8e8                HAL_RCCEx_PeriphCLKConfig
                0x000000000800cab8                HAL_RCCEx_GetPeriphCLKConfig
 .text          0x000000000800cb3c        0x0 build/objs/stm32f4xx_ll_fmc.o
 .text          0x000000000800cb3c        0x0 build/objs/stm32f4xx_hal_ltdc_ex.o
 .text          0x000000000800cb3c        0x0 build/objs/stm32f4xx_hal_flash_ramfunc.o
 .text          0x000000000800cb3c      0x5b0 build/objs/stm32f4xx_hal_cortex.o
                0x000000000800ceb8                HAL_NVIC_SetPriorityGrouping
                0x000000000800cecc                HAL_NVIC_SetPriority
                0x000000000800cf04                HAL_NVIC_EnableIRQ
                0x000000000800cf20                HAL_NVIC_DisableIRQ
                0x000000000800cf3c                HAL_NVIC_SystemReset
                0x000000000800cf48                HAL_SYSTICK_Config
                0x000000000800cf60                HAL_MPU_ConfigRegion
                0x000000000800cfe4                HAL_NVIC_GetPriorityGrouping
                0x000000000800cff4                HAL_NVIC_GetPriority
                0x000000000800d024                HAL_NVIC_SetPendingIRQ
                0x000000000800d040                HAL_NVIC_GetPendingIRQ
                0x000000000800d060                HAL_NVIC_ClearPendingIRQ
                0x000000000800d07c                HAL_NVIC_GetActive
                0x000000000800d09c                HAL_SYSTICK_CLKSourceConfig
                0x000000000800d0d4                HAL_SYSTICK_IRQHandler
                0x000000000800d0e0                HAL_SYSTICK_Callback
 .text          0x000000000800d0ec        0x0 build/objs/stm32f4xx_hal_iwdg.o
 .text          0x000000000800d0ec        0x0 build/objs/stm32f4xx_hal_uart.o
 .text          0x000000000800d0ec     0x14dc build/objs/stm32f4xx_hal_tim_ex.o
                0x000000000800d0ec                HAL_TIMEx_HallSensor_Init
                0x000000000800d208                HAL_TIMEx_HallSensor_DeInit
                0x000000000800d268                HAL_TIMEx_HallSensor_MspInit
                0x000000000800d27c                HAL_TIMEx_HallSensor_MspDeInit
                0x000000000800d290                HAL_TIMEx_HallSensor_Start
                0x000000000800d2c0                HAL_TIMEx_HallSensor_Stop
                0x000000000800d310                HAL_TIMEx_HallSensor_Start_IT
                0x000000000800d350                HAL_TIMEx_HallSensor_Stop_IT
                0x000000000800d3b0                HAL_TIMEx_HallSensor_Start_DMA
                0x000000000800d45c                HAL_TIMEx_HallSensor_Stop_DMA
                0x000000000800d4bc                HAL_TIMEx_OCN_Start
                0x000000000800d500                HAL_TIMEx_OCN_Stop
                0x000000000800d584                HAL_TIMEx_OCN_Start_IT
                0x000000000800d664                HAL_TIMEx_OCN_Stop_IT
                0x000000000800d794                HAL_TIMEx_OCN_Start_DMA
                0x000000000800d94c                HAL_TIMEx_OCN_Stop_DMA
                0x000000000800da64                HAL_TIMEx_PWMN_Start
                0x000000000800daa8                HAL_TIMEx_PWMN_Stop
                0x000000000800db2c                HAL_TIMEx_PWMN_Start_IT
                0x000000000800dc0c                HAL_TIMEx_PWMN_Stop_IT
                0x000000000800dd3c                HAL_TIMEx_PWMN_Start_DMA
                0x000000000800def4                HAL_TIMEx_PWMN_Stop_DMA
                0x000000000800e00c                HAL_TIMEx_OnePulseN_Start
                0x000000000800e040                HAL_TIMEx_OnePulseN_Stop
                0x000000000800e0c4                HAL_TIMEx_OnePulseN_Start_IT
                0x000000000800e118                HAL_TIMEx_OnePulseN_Stop_IT
                0x000000000800e1bc                HAL_TIMEx_ConfigCommutationEvent
                0x000000000800e25c                HAL_TIMEx_ConfigCommutationEvent_IT
                0x000000000800e30c                HAL_TIMEx_ConfigCommutationEvent_DMA
                0x000000000800e3d4                HAL_TIMEx_MasterConfigSynchronization
                0x000000000800e460                HAL_TIMEx_ConfigBreakDeadTime
                0x000000000800e4d4                HAL_TIMEx_RemapConfig
                0x000000000800e51c                HAL_TIMEx_CommutationCallback
                0x000000000800e530                HAL_TIMEx_BreakCallback
                0x000000000800e544                HAL_TIMEx_HallSensor_GetState
                0x000000000800e560                TIMEx_DMACommutationCplt
 .text          0x000000000800e5c8        0x0 build/objs/stm32f4xx_hal_i2c_ex.o
 .text          0x000000000800e5c8      0x8e4 build/objs/stm32f4xx_hal_dma.o
                0x000000000800e5c8                HAL_DMA_Init
                0x000000000800e6a0                HAL_DMA_DeInit
                0x000000000800e73c                HAL_DMA_Start
                0x000000000800e7a0                HAL_DMA_Start_IT
                0x000000000800e824                HAL_DMA_Abort
                0x000000000800e8a0                HAL_DMA_PollForTransfer
                0x000000000800eabc                HAL_DMA_IRQHandler
                0x000000000800edb0                HAL_DMA_GetState
                0x000000000800edcc                HAL_DMA_GetError
 .text          0x000000000800eeac        0x0 build/objs/stm32f4xx_hal_dac.o
 .text          0x000000000800eeac        0x0 build/objs/stm32f4xx_hal_spdifrx.o
 .text          0x000000000800eeac        0x0 build/objs/stm32f4xx_hal_fmpi2c_ex.o
 .text          0x000000000800eeac        0x0 build/objs/stm32f4xx_ll_sdmmc.o
 .text          0x000000000800eeac        0x0 build/objs/stm32f4xx_hal_i2s_ex.o
 .text          0x000000000800eeac        0x0 build/objs/stm32f4xx_hal_can.o
 .text          0x000000000800eeac        0x0 build/objs/stm32f4xx_hal_nor.o
 .text          0x000000000800eeac      0x35c build/objs/stm32f4xx_hal_pwr.o
                0x000000000800eeac                HAL_PWR_DeInit
                0x000000000800eed4                HAL_PWR_EnableBkUpAccess
                0x000000000800ef08                HAL_PWR_DisableBkUpAccess
                0x000000000800ef3c                HAL_PWR_ConfigPVD
                0x000000000800eff8                HAL_PWR_EnablePVD
                0x000000000800f02c                HAL_PWR_DisablePVD
                0x000000000800f060                HAL_PWR_EnableWakeUpPin
                0x000000000800f084                HAL_PWR_DisableWakeUpPin
                0x000000000800f0a8                HAL_PWR_EnterSLEEPMode
                0x000000000800f0e0                HAL_PWR_EnterSTOPMode
                0x000000000800f138                HAL_PWR_EnterSTANDBYMode
                0x000000000800f168                HAL_PWR_PVD_IRQHandler
                0x000000000800f18c                HAL_PWR_PVDCallback
                0x000000000800f198                HAL_PWR_EnableSleepOnExit
                0x000000000800f1b4                HAL_PWR_DisableSleepOnExit
                0x000000000800f1d0                HAL_PWR_EnableSEVOnPend
                0x000000000800f1ec                HAL_PWR_DisableSEVOnPend
 .text          0x000000000800f208        0x0 build/objs/stm32f4xx_hal_rtc.o
 .text          0x000000000800f208        0x0 build/objs/stm32f4xx_hal_qspi.o
 .text          0x000000000800f208        0x0 build/objs/stm32f4xx_hal_hash_ex.o
 .text          0x000000000800f208        0x0 build/objs/stm32f4xx_hal_i2s.o
 .text          0x000000000800f208        0x0 build/objs/stm32f4xx_hal_sram.o
 .text          0x000000000800f208        0x0 build/objs/stm32f4xx_hal_hash.o
 .text          0x000000000800f208        0x0 build/objs/stm32f4xx_hal_eth.o
 .text          0x000000000800f208     0x3f3c build/objs/stm32f4xx_hal_tim.o
                0x000000000800f208                HAL_TIM_Base_Init
                0x000000000800f260                HAL_TIM_Base_DeInit
                0x000000000800f2c0                HAL_TIM_Base_MspInit
                0x000000000800f2d4                HAL_TIM_Base_MspDeInit
                0x000000000800f2e8                HAL_TIM_Base_Start
                0x000000000800f320                HAL_TIM_Base_Stop
                0x000000000800f378                HAL_TIM_Base_Start_IT
                0x000000000800f3b0                HAL_TIM_Base_Stop_IT
                0x000000000800f408                HAL_TIM_Base_Start_DMA
                0x000000000800f4a8                HAL_TIM_Base_Stop_DMA
                0x000000000800f508                HAL_TIM_OC_Init
                0x000000000800f560                HAL_TIM_OC_DeInit
                0x000000000800f5c0                HAL_TIM_OC_MspInit
                0x000000000800f5d4                HAL_TIM_OC_MspDeInit
                0x000000000800f5e8                HAL_TIM_OC_Start
                0x000000000800f650                HAL_TIM_OC_Stop
                0x000000000800f6f8                HAL_TIM_OC_Start_IT
                0x000000000800f7ec                HAL_TIM_OC_Stop_IT
                0x000000000800f920                HAL_TIM_OC_Start_DMA
                0x000000000800fafc                HAL_TIM_OC_Stop_DMA
                0x000000000800fc38                HAL_TIM_PWM_Init
                0x000000000800fc90                HAL_TIM_PWM_DeInit
                0x000000000800fcf0                HAL_TIM_PWM_MspInit
                0x000000000800fd04                HAL_TIM_PWM_MspDeInit
                0x000000000800fd18                HAL_TIM_PWM_Start
                0x000000000800fd80                HAL_TIM_PWM_Stop
                0x000000000800fe30                HAL_TIM_PWM_Start_IT
                0x000000000800ff24                HAL_TIM_PWM_Stop_IT
                0x0000000008010058                HAL_TIM_PWM_Start_DMA
                0x0000000008010234                HAL_TIM_PWM_Stop_DMA
                0x0000000008010370                HAL_TIM_IC_Init
                0x00000000080103c8                HAL_TIM_IC_DeInit
                0x0000000008010428                HAL_TIM_IC_MspInit
                0x000000000801043c                HAL_TIM_IC_MspDeInit
                0x0000000008010450                HAL_TIM_IC_Start
                0x0000000008010484                HAL_TIM_IC_Stop
                0x00000000080104d8                HAL_TIM_IC_Start_IT
                0x0000000008010598                HAL_TIM_IC_Stop_IT
                0x0000000008010678                HAL_TIM_IC_Start_DMA
                0x0000000008010818                HAL_TIM_IC_Stop_DMA
                0x0000000008010900                HAL_TIM_OnePulse_Init
                0x0000000008010978                HAL_TIM_OnePulse_DeInit
                0x00000000080109d8                HAL_TIM_OnePulse_MspInit
                0x00000000080109ec                HAL_TIM_OnePulse_MspDeInit
                0x0000000008010a00                HAL_TIM_OnePulse_Start
                0x0000000008010a68                HAL_TIM_OnePulse_Stop
                0x0000000008010b20                HAL_TIM_OnePulse_Start_IT
                0x0000000008010ba8                HAL_TIM_OnePulse_Stop_IT
                0x0000000008010c80                HAL_TIM_Encoder_Init
                0x0000000008010dac                HAL_TIM_Encoder_DeInit
                0x0000000008010e0c                HAL_TIM_Encoder_MspInit
                0x0000000008010e20                HAL_TIM_Encoder_MspDeInit
                0x0000000008010e34                HAL_TIM_Encoder_Start
                0x0000000008010ea4                HAL_TIM_Encoder_Stop
                0x0000000008010f34                HAL_TIM_Encoder_Start_IT
                0x0000000008010fe4                HAL_TIM_Encoder_Stop_IT
                0x00000000080110b8                HAL_TIM_Encoder_Start_DMA
                0x0000000008011270                HAL_TIM_Encoder_Stop_DMA
                0x0000000008011344                HAL_TIM_IRQHandler
                0x0000000008011554                HAL_TIM_OC_ConfigChannel
                0x0000000008011614                HAL_TIM_IC_ConfigChannel
                0x000000000801174c                HAL_TIM_PWM_ConfigChannel
                0x00000000080118d8                HAL_TIM_OnePulse_ConfigChannel
                0x0000000008011a58                HAL_TIM_DMABurst_WriteStart
                0x0000000008011c64                HAL_TIM_DMABurst_WriteStop
                0x0000000008011d14                HAL_TIM_DMABurst_ReadStart
                0x0000000008011f14                HAL_TIM_DMABurst_ReadStop
                0x0000000008011fc4                HAL_TIM_GenerateEvent
                0x0000000008012014                HAL_TIM_ConfigOCrefClear
                0x0000000008012168                HAL_TIM_ConfigClockSource
                0x000000000801232c                HAL_TIM_ConfigTI1Input
                0x0000000008012368                HAL_TIM_SlaveConfigSynchronization
                0x00000000080123d4                HAL_TIM_SlaveConfigSynchronization_IT
                0x0000000008012440                HAL_TIM_ReadCapturedValue
                0x00000000080124f8                HAL_TIM_OC_DelayElapsedCallback
                0x000000000801250c                HAL_TIM_IC_CaptureCallback
                0x0000000008012520                HAL_TIM_PWM_PulseFinishedCallback
                0x0000000008012534                HAL_TIM_TriggerCallback
                0x0000000008012548                HAL_TIM_ErrorCallback
                0x000000000801255c                HAL_TIM_Base_GetState
                0x0000000008012578                HAL_TIM_OC_GetState
                0x0000000008012594                HAL_TIM_PWM_GetState
                0x00000000080125b0                HAL_TIM_IC_GetState
                0x00000000080125cc                HAL_TIM_OnePulse_GetState
                0x00000000080125e8                HAL_TIM_Encoder_GetState
                0x0000000008012604                TIM_Base_SetConfig
                0x0000000008012754                TIM_TI1_SetConfig
                0x0000000008012848                TIM_OC2_SetConfig
                0x0000000008012938                TIM_DMADelayPulseCplt
                0x00000000080129a8                TIM_DMAError
                0x00000000080129cc                TIM_DMACaptureCplt
                0x0000000008012a3c                TIM_CCxChannelCmd
 .text          0x0000000008013144      0x210 build/objs/stm32f4xx_hal_dma_ex.o
                0x0000000008013144                HAL_DMAEx_MultiBufferStart
                0x00000000080131e4                HAL_DMAEx_MultiBufferStart_IT
                0x00000000080132d4                HAL_DMAEx_ChangeMemory
 .text          0x0000000008013354        0x0 build/objs/stm32f4xx_hal_sd.o
 .text          0x0000000008013354        0x0 build/objs/stm32f4xx_hal_sai_ex.o
 .text          0x0000000008013354      0xae8 build/objs/stm32f4xx_hal_rcc.o
                0x0000000008013360                HAL_RCC_OscConfig
                0x0000000008013784                HAL_RCC_ClockConfig
                0x000000000801396c                HAL_RCC_MCOConfig
                0x0000000008013a38                HAL_RCC_EnableCSS
                0x0000000008013a50                HAL_RCC_DisableCSS
                0x0000000008013a68                HAL_RCC_GetSysClockFreq
                0x0000000008013b64                HAL_RCC_GetHCLKFreq
                0x0000000008013bb4                HAL_RCC_GetPCLK1Freq
                0x0000000008013bf8                HAL_RCC_GetPCLK2Freq
                0x0000000008013c3c                HAL_RCC_GetOscConfig
                0x0000000008013dac                HAL_RCC_GetClockConfig
                0x0000000008013e0c                HAL_RCC_NMI_IRQHandler
                0x0000000008013e30                HAL_RCC_CSSCallback
 .text          0x0000000008013e3c        0x0 build/objs/stm32f4xx_hal_wwdg.o
 .text          0x0000000008013e3c        0x0 build/objs/stm32f4xx_hal_dac_ex.o
 .text          0x0000000008013e3c        0x0 build/objs/stm32f4xx_hal_rtc_ex.o
 .text          0x0000000008013e3c      0x1d8 build/objs/stm32f4xx_hal_pwr_ex.o
                0x0000000008013e3c                HAL_PWREx_EnableBkUpReg
                0x0000000008013ea4                HAL_PWREx_DisableBkUpReg
                0x0000000008013f0c                HAL_PWREx_EnableFlashPowerDown
                0x0000000008013f40                HAL_PWREx_DisableFlashPowerDown
                0x0000000008013f74                HAL_PWREx_GetVoltageRange
                0x0000000008013f90                HAL_PWREx_ControlVoltageScaling
 .text          0x0000000008014014        0x0 build/objs/stm32f4xx_hal_dcmi.o
 .text          0x0000000008014014        0x0 build/objs/stm32f4xx_hal_sdram.o
 .text          0x0000000008014014      0x5f8 build/objs/stm32f4xx_hal_flash.o
                0x0000000008014014                HAL_FLASH_Program
                0x00000000080140bc                HAL_FLASH_Program_IT
                0x0000000008014158                HAL_FLASH_IRQHandler
                0x0000000008014298                HAL_FLASH_EndOfOperationCallback
                0x00000000080142ac                HAL_FLASH_OperationErrorCallback
                0x00000000080142c0                HAL_FLASH_Unlock
                0x00000000080142f4                HAL_FLASH_Lock
                0x0000000008014314                HAL_FLASH_OB_Unlock
                0x000000000801434c                HAL_FLASH_OB_Lock
                0x000000000801436c                HAL_FLASH_OB_Launch
                0x0000000008014394                HAL_FLASH_GetError
                0x00000000080143ac                FLASH_WaitForLastOperation
 .text          0x000000000801460c        0x0 build/objs/stm32f4xx_hal_crc.o
 .text          0x000000000801460c        0x0 build/objs/stm32f4xx_hal_usart.o
 .text          0x000000000801460c      0x7cc build/objs/stm32f4_discovery.o
                0x000000000801460c                BSP_GetVersion
                0x0000000008014620                BSP_LED_Init
                0x0000000008014710                BSP_LED_On
                0x0000000008014744                BSP_LED_Off
                0x0000000008014778                BSP_LED_Toggle
                0x00000000080147a8                BSP_PB_Init
                0x000000000801485c                BSP_PB_GetState
                0x0000000008014b80                ACCELERO_IO_Init
                0x0000000008014bd8                ACCELERO_IO_ITConfig
                0x0000000008014c38                ACCELERO_IO_Write
                0x0000000008014c9c                ACCELERO_IO_Read
                0x0000000008014d0c                AUDIO_IO_Init
                0x0000000008014d7c                AUDIO_IO_DeInit
                0x0000000008014d88                AUDIO_IO_Write
                0x0000000008014db0                AUDIO_IO_Read
 .text          0x0000000008014dd8      0x164 build/objs/system_stm32f4xx.o
                0x0000000008014dd8                SystemInit
                0x0000000008014e44                SystemCoreClockUpdate
 .text          0x0000000008014f3c      0x57c build/objs/usbd_core.o
                0x0000000008014f3c                USBD_Init
                0x0000000008014f94                USBD_DeInit
                0x0000000008014fd0                USBD_RegisterClass
                0x0000000008015004                USBD_Start
                0x000000000801501c                USBD_Stop
                0x0000000008015048                USBD_RunTestMode
                0x0000000008015060                USBD_SetClassConfig
                0x00000000080150a0                USBD_ClrClassConfig
                0x00000000080150c8                USBD_LL_SetupStage
                0x000000000801515c                USBD_LL_DataOutStage
                0x0000000008015214                USBD_LL_DataInStage
                0x0000000008015334                USBD_LL_Reset
                0x0000000008015394                USBD_LL_SetSpeed
                0x00000000080153b4                USBD_LL_Suspend
                0x00000000080153e0                USBD_LL_Resume
                0x0000000008015404                USBD_LL_SOF
                0x0000000008015438                USBD_LL_IsoINIncomplete
                0x0000000008015454                USBD_LL_IsoOUTIncomplete
                0x0000000008015470                USBD_LL_DevConnected
                0x0000000008015488                USBD_LL_DevDisconnected
 .text          0x00000000080154b8      0x8c8 build/objs/usbd_ctlreq.o
                0x00000000080154b8                USBD_StdDevReq
                0x0000000008015558                USBD_StdItfReq
                0x00000000080155c0                USBD_StdEPReq
                0x0000000008015c34                USBD_ParseSetupRequest
                0x0000000008015cac                USBD_CtlError
                0x0000000008015ccc                USBD_GetString
 .text          0x0000000008015d80      0x130 build/objs/usbd_ioreq.o
                0x0000000008015d80                USBD_CtlSendData
                0x0000000008015db8                USBD_CtlContinueSendData
                0x0000000008015ddc                USBD_CtlPrepareRx
                0x0000000008015e18                USBD_CtlContinueRx
                0x0000000008015e3c                USBD_CtlSendStatus
                0x0000000008015e64                USBD_CtlReceiveStatus
                0x0000000008015e8c                USBD_GetRxCount
 .text          0x0000000008015eb0      0x1a4 build/objs/usbd_cdc_if_template.o
 .text          0x0000000008016054      0x490 build/objs/usbd_cdc.o
                0x000000000801638c                USBD_CDC_GetDeviceQualifierDescriptor
                0x00000000080163ac                USBD_CDC_RegisterInterface
                0x00000000080163dc                USBD_CDC_SetTxBuffer
                0x0000000008016410                USBD_CDC_SetRxBuffer
                0x0000000008016438                USBD_CDC_TransmitPacket
                0x000000000801648c                USBD_CDC_ReceivePacket
 .text          0x00000000080164e4       0x14 build/objs/startup_stm32f407xx.o
 .text          0x00000000080164f8        0x0 /usr/lib/gcc/arm-none-eabi/4.9.3/../../../arm-none-eabi/lib/armv7e-m/fpu/libg.a(lib_a-errno.o)
 .text          0x00000000080164f8        0x0 /usr/lib/gcc/arm-none-eabi/4.9.3/../../../arm-none-eabi/lib/armv7e-m/fpu/libg.a(lib_a-impure.o)
 .text          0x00000000080164f8        0x0 /usr/lib/gcc/arm-none-eabi/4.9.3/../../../arm-none-eabi/lib/armv7e-m/fpu/libg.a(lib_a-malloc.o)
 .text          0x00000000080164f8        0x0 /usr/lib/gcc/arm-none-eabi/4.9.3/../../../arm-none-eabi/lib/armv7e-m/fpu/libg.a(lib_a-mallocr.o)
 .text          0x00000000080164f8        0x0 /usr/lib/gcc/arm-none-eabi/4.9.3/../../../arm-none-eabi/lib/armv7e-m/fpu/libg.a(lib_a-mlock.o)
 .text          0x00000000080164f8        0x0 /usr/lib/gcc/arm-none-eabi/4.9.3/../../../arm-none-eabi/lib/armv7e-m/fpu/libg.a(lib_a-sbrkr.o)
 .text          0x00000000080164f8        0x0 /usr/lib/gcc/arm-none-eabi/4.9.3/../../../arm-none-eabi/lib/armv7e-m/fpu/libg.a(lib_a-freer.o)
 .text          0x00000000080164f8        0x0 /usr/lib/gcc/arm-none-eabi/4.9.3/../../../arm-none-eabi/lib/armv7e-m/fpu/libg.a(lib_a-reent.o)
 *(.text*)
 .text.Reset_Handler
                0x00000000080164f8       0x4c build/objs/startup_stm32f407xx.o
                0x00000000080164f8                Reset_Handler
 .text.Default_Handler
                0x0000000008016544        0x2 build/objs/startup_stm32f407xx.o
                0x0000000008016544                RTC_Alarm_IRQHandler
                0x0000000008016544                HASH_RNG_IRQHandler
                0x0000000008016544                EXTI2_IRQHandler
                0x0000000008016544                TIM8_CC_IRQHandler
                0x0000000008016544                DebugMon_Handler
                0x0000000008016544                TIM1_CC_IRQHandler
                0x0000000008016544                DMA2_Stream5_IRQHandler
                0x0000000008016544                HardFault_Handler
                0x0000000008016544                DMA1_Stream5_IRQHandler
                0x0000000008016544                PVD_IRQHandler
                0x0000000008016544                SDIO_IRQHandler
                0x0000000008016544                TAMP_STAMP_IRQHandler
                0x0000000008016544                PendSV_Handler
                0x0000000008016544                NMI_Handler
                0x0000000008016544                CAN2_RX1_IRQHandler
                0x0000000008016544                EXTI3_IRQHandler
                0x0000000008016544                TIM8_TRG_COM_TIM14_IRQHandler
                0x0000000008016544                TIM1_UP_TIM10_IRQHandler
                0x0000000008016544                TIM8_UP_TIM13_IRQHandler
                0x0000000008016544                I2C3_ER_IRQHandler
                0x0000000008016544                EXTI0_IRQHandler
                0x0000000008016544                I2C2_EV_IRQHandler
                0x0000000008016544                DMA1_Stream2_IRQHandler
                0x0000000008016544                CAN1_RX0_IRQHandler
                0x0000000008016544                FPU_IRQHandler
                0x0000000008016544                OTG_HS_WKUP_IRQHandler
                0x0000000008016544                UsageFault_Handler
                0x0000000008016544                CAN2_SCE_IRQHandler
                0x0000000008016544                DMA2_Stream2_IRQHandler
                0x0000000008016544                SPI1_IRQHandler
                0x0000000008016544                TIM1_BRK_TIM9_IRQHandler
                0x0000000008016544                DCMI_IRQHandler
                0x0000000008016544                CAN2_RX0_IRQHandler
                0x0000000008016544                DMA2_Stream3_IRQHandler
                0x0000000008016544                USART6_IRQHandler
                0x0000000008016544                USART3_IRQHandler
                0x0000000008016544                CAN1_RX1_IRQHandler
                0x0000000008016544                UART5_IRQHandler
                0x0000000008016544                DMA2_Stream0_IRQHandler
                0x0000000008016544                TIM4_IRQHandler
                0x0000000008016544                I2C1_EV_IRQHandler
                0x0000000008016544                DMA1_Stream6_IRQHandler
                0x0000000008016544                DMA1_Stream1_IRQHandler
                0x0000000008016544                UART4_IRQHandler
                0x0000000008016544                TIM3_IRQHandler
                0x0000000008016544                RCC_IRQHandler
                0x0000000008016544                TIM8_BRK_TIM12_IRQHandler
                0x0000000008016544                Default_Handler
                0x0000000008016544                EXTI15_10_IRQHandler
                0x0000000008016544                ADC_IRQHandler
                0x0000000008016544                DMA1_Stream7_IRQHandler
                0x0000000008016544                TIM7_IRQHandler
                0x0000000008016544                CAN2_TX_IRQHandler
                0x0000000008016544                TIM5_IRQHandler
                0x0000000008016544                DMA2_Stream7_IRQHandler
                0x0000000008016544                I2C3_EV_IRQHandler
                0x0000000008016544                EXTI9_5_IRQHandler
                0x0000000008016544                RTC_WKUP_IRQHandler
                0x0000000008016544                ETH_WKUP_IRQHandler
                0x0000000008016544                SPI2_IRQHandler
                0x0000000008016544                OTG_HS_EP1_IN_IRQHandler
                0x0000000008016544                MemManage_Handler
                0x0000000008016544                DMA1_Stream0_IRQHandler
                0x0000000008016544                CAN1_TX_IRQHandler
                0x0000000008016544                SVC_Handler
                0x0000000008016544                EXTI4_IRQHandler
                0x0000000008016544                FSMC_IRQHandler
                0x0000000008016544                ETH_IRQHandler
                0x0000000008016544                OTG_HS_EP1_OUT_IRQHandler
                0x0000000008016544                WWDG_IRQHandler
                0x0000000008016544                TIM2_IRQHandler
                0x0000000008016544                OTG_FS_WKUP_IRQHandler
                0x0000000008016544                TIM1_TRG_COM_TIM11_IRQHandler
                0x0000000008016544                OTG_HS_IRQHandler
                0x0000000008016544                EXTI1_IRQHandler
                0x0000000008016544                USART2_IRQHandler
                0x0000000008016544                I2C2_ER_IRQHandler
                0x0000000008016544                DMA2_Stream1_IRQHandler
                0x0000000008016544                CAN1_SCE_IRQHandler
                0x0000000008016544                FLASH_IRQHandler
                0x0000000008016544                DMA2_Stream4_IRQHandler
                0x0000000008016544                BusFault_Handler
                0x0000000008016544                USART1_IRQHandler
                0x0000000008016544                SPI3_IRQHandler
                0x0000000008016544                DMA1_Stream4_IRQHandler
                0x0000000008016544                I2C1_ER_IRQHandler
                0x0000000008016544                DMA2_Stream6_IRQHandler
                0x0000000008016544                DMA1_Stream3_IRQHandler
 *fill*         0x0000000008016546        0x2 
 .text.__errno  0x0000000008016548        0xc /usr/lib/gcc/arm-none-eabi/4.9.3/../../../arm-none-eabi/lib/armv7e-m/fpu/libg.a(lib_a-errno.o)
                0x0000000008016548                __errno
 .text.malloc   0x0000000008016554       0x10 /usr/lib/gcc/arm-none-eabi/4.9.3/../../../arm-none-eabi/lib/armv7e-m/fpu/libg.a(lib_a-malloc.o)
                0x0000000008016554                malloc
 .text.free     0x0000000008016564       0x10 /usr/lib/gcc/arm-none-eabi/4.9.3/../../../arm-none-eabi/lib/armv7e-m/fpu/libg.a(lib_a-malloc.o)
                0x0000000008016564                free
 .text._malloc_r
                0x0000000008016574      0x548 /usr/lib/gcc/arm-none-eabi/4.9.3/../../../arm-none-eabi/lib/armv7e-m/fpu/libg.a(lib_a-mallocr.o)
                0x0000000008016574                _malloc_r
 .text.__malloc_lock
                0x0000000008016abc        0x4 /usr/lib/gcc/arm-none-eabi/4.9.3/../../../arm-none-eabi/lib/armv7e-m/fpu/libg.a(lib_a-mlock.o)
                0x0000000008016abc                __malloc_lock
 .text.__malloc_unlock
                0x0000000008016ac0        0x4 /usr/lib/gcc/arm-none-eabi/4.9.3/../../../arm-none-eabi/lib/armv7e-m/fpu/libg.a(lib_a-mlock.o)
                0x0000000008016ac0                __malloc_unlock
 .text._sbrk_r  0x0000000008016ac4       0x24 /usr/lib/gcc/arm-none-eabi/4.9.3/../../../arm-none-eabi/lib/armv7e-m/fpu/libg.a(lib_a-sbrkr.o)
                0x0000000008016ac4                _sbrk_r
 .text._malloc_trim_r
                0x0000000008016ae8       0x9c /usr/lib/gcc/arm-none-eabi/4.9.3/../../../arm-none-eabi/lib/armv7e-m/fpu/libg.a(lib_a-freer.o)
                0x0000000008016ae8                _malloc_trim_r
 .text._free_r  0x0000000008016b84      0x19c /usr/lib/gcc/arm-none-eabi/4.9.3/../../../arm-none-eabi/lib/armv7e-m/fpu/libg.a(lib_a-freer.o)
                0x0000000008016b84                _free_r
 .text.cleanup_glue
                0x0000000008016d20       0x1c /usr/lib/gcc/arm-none-eabi/4.9.3/../../../arm-none-eabi/lib/armv7e-m/fpu/libg.a(lib_a-reent.o)
                0x0000000008016d20                cleanup_glue
 .text._reclaim_reent
                0x0000000008016d3c       0x90 /usr/lib/gcc/arm-none-eabi/4.9.3/../../../arm-none-eabi/lib/armv7e-m/fpu/libg.a(lib_a-reent.o)
                0x0000000008016d3c                _reclaim_reent
 *(.glue_7)
 .glue_7        0x0000000008016dcc        0x0 linker stubs
 *(.glue_7t)
 .glue_7t       0x0000000008016dcc        0x0 linker stubs
 *(.eh_frame)
 *(.init)
 *(.fini)
                0x0000000008016dcc                . = ALIGN (0x4)
                0x0000000008016dcc                _etext = .

.vfp11_veneer   0x0000000008016dcc        0x0
 .vfp11_veneer  0x0000000008016dcc        0x0 linker stubs

.v4_bx          0x0000000008016dcc        0x0
 .v4_bx         0x0000000008016dcc        0x0 linker stubs

.iplt           0x0000000008016dcc        0x0
 .iplt          0x0000000008016dcc        0x0 build/objs/usbd_cdc_if.o

.rodata         0x0000000008016dcc      0x434
                0x0000000008016dcc                . = ALIGN (0x4)
 *(.rodata)
 .rodata        0x0000000008016dcc       0x14 build/objs/main.o
 .rodata        0x0000000008016de0       0x58 build/objs/usbd_desc.o
 .rodata        0x0000000008016e38      0x388 build/objs/pcd8544.o
                0x0000000008016e38                PCD8544_Font5x7
                0x0000000008017080                PCD8544_Font3x5
 .rodata        0x00000000080171c0        0x8 build/objs/stm32f4xx_hal_dma.o
 .rodata        0x00000000080171c8       0x10 build/objs/stm32f4xx_hal_rcc.o
                0x00000000080171c8                APBAHBPrescTable
 .rodata        0x00000000080171d8       0x10 build/objs/stm32f4_discovery.o
                0x00000000080171d8                GPIO_PIN
                0x00000000080171e0                BUTTON_PIN
                0x00000000080171e4                BUTTON_IRQn
 .rodata        0x00000000080171e8       0x10 build/objs/system_stm32f4xx.o
                0x00000000080171e8                AHBPrescTable
 *(.rodata*)
 .rodata.str1.4
                0x00000000080171f8        0x4 /usr/lib/gcc/arm-none-eabi/4.9.3/../../../arm-none-eabi/lib/armv7e-m/fpu/libg.a(lib_a-impure.o)
 .rodata._global_impure_ptr
                0x00000000080171fc        0x4 /usr/lib/gcc/arm-none-eabi/4.9.3/../../../arm-none-eabi/lib/armv7e-m/fpu/libg.a(lib_a-impure.o)
                0x00000000080171fc                _global_impure_ptr
                0x0000000008017200                . = ALIGN (0x4)

.rel.dyn        0x0000000008017200        0x0
 .rel.iplt      0x0000000008017200        0x0 build/objs/usbd_cdc_if.o

.ARM.extab
 *(.ARM.extab* .gnu.linkonce.armextab.*)

.ARM            0x0000000008017200        0x0
                0x0000000008017200                __exidx_start = .
 *(.ARM.exidx*)
                0x0000000008017200                __exidx_end = .

.preinit_array  0x0000000008017200        0x0
                [!provide]                        PROVIDE (__preinit_array_start, .)
 *(.preinit_array*)
                [!provide]                        PROVIDE (__preinit_array_end, .)

.init_array     0x0000000008017200        0x0
                [!provide]                        PROVIDE (__init_array_start, .)
 *(SORT(.init_array.*))
 *(.init_array*)
                [!provide]                        PROVIDE (__init_array_end, .)

.fini_array     0x0000000008017200        0x0
                [!provide]                        PROVIDE (__fini_array_start, .)
 *(SORT(.fini_array.*))
 *(.fini_array*)
                [!provide]                        PROVIDE (__fini_array_end, .)
                0x0000000008017200                _sidata = LOADADDR (.data)

.data           0x0000000020000000      0xa94 load address 0x0000000008017200
                0x0000000020000000                . = ALIGN (0x4)
                0x0000000020000000                _sdata = .
 *(.data)
 .data          0x0000000020000000       0x10 build/objs/usbd_cdc_if.o
                0x0000000020000000                USBD_Interface_fops_FS
 .data          0x0000000020000010        0x0 build/objs/usbd_conf.o
 .data          0x0000000020000010        0x0 build/objs/syscalls.o
 .data          0x0000000020000010        0x0 build/objs/stm32f4xx_hal_msp.o
 .data          0x0000000020000010        0x0 build/objs/gpio.o
 .data          0x0000000020000010        0x0 build/objs/main.o
 .data          0x0000000020000010        0x0 build/objs/stm32f4xx_it.o
 .data          0x0000000020000010        0x0 build/objs/usb_device.o
 .data          0x0000000020000010       0x34 build/objs/usbd_desc.o
                0x0000000020000010                FS_Desc
                0x000000002000002c                USBD_FS_DeviceDesc
                0x0000000020000040                USBD_LangIDDesc
 .data          0x0000000020000044       0xcc build/objs/pcd8544.o
                0x0000000020000044                brightness_levels
 .data          0x0000000020000110        0x0 build/objs/stm32f4xx_hal_dsi.o
 .data          0x0000000020000110        0x0 build/objs/stm32f4xx_hal_pcd.o
 .data          0x0000000020000110        0x0 build/objs/stm32f4xx_hal_irda.o
 .data          0x0000000020000110        0x0 build/objs/stm32f4xx_ll_fsmc.o
 .data          0x0000000020000110        0x0 build/objs/stm32f4xx_hal_cec.o
 .data          0x0000000020000110        0x0 build/objs/stm32f4xx_hal_timebase_tim_template.o
 .data          0x0000000020000110        0x0 build/objs/stm32f4xx_ll_usb.o
 .data          0x0000000020000110        0x0 build/objs/stm32f4xx_hal.o
 .data          0x0000000020000110        0x0 build/objs/stm32f4xx_hal_dcmi_ex.o
 .data          0x0000000020000110        0x0 build/objs/stm32f4xx_hal_flash_ex.o
 .data          0x0000000020000110        0x0 build/objs/stm32f4xx_hal_cryp.o
 .data          0x0000000020000110        0x0 build/objs/stm32f4xx_hal_rng.o
 .data          0x0000000020000110        0x0 build/objs/stm32f4xx_hal_nand.o
 .data          0x0000000020000110        0x0 build/objs/stm32f4xx_hal_gpio.o
 .data          0x0000000020000110        0x0 build/objs/stm32f4xx_hal_ltdc.o
 .data          0x0000000020000110        0x0 build/objs/stm32f4xx_hal_hcd.o
 .data          0x0000000020000110        0x0 build/objs/stm32f4xx_hal_pcd_ex.o
 .data          0x0000000020000110        0x0 build/objs/stm32f4xx_hal_adc.o
 .data          0x0000000020000110        0x0 build/objs/stm32f4xx_hal_adc_ex.o
 .data          0x0000000020000110        0x0 build/objs/stm32f4xx_hal_lptim.o
 .data          0x0000000020000110        0x0 build/objs/stm32f4xx_hal_spi.o
 .data          0x0000000020000110        0x0 build/objs/stm32f4xx_hal_i2c.o
 .data          0x0000000020000110        0x0 build/objs/stm32f4xx_hal_fmpi2c.o
 .data          0x0000000020000110        0x0 build/objs/stm32f4xx_hal_smartcard.o
 .data          0x0000000020000110        0x0 build/objs/stm32f4xx_hal_pccard.o
 .data          0x0000000020000110        0x0 build/objs/stm32f4xx_hal_dma2d.o
 .data          0x0000000020000110        0x0 build/objs/stm32f4xx_hal_sai.o
 .data          0x0000000020000110        0x0 build/objs/stm32f4xx_hal_cryp_ex.o
 .data          0x0000000020000110        0x0 build/objs/stm32f4xx_hal_rcc_ex.o
 .data          0x0000000020000110        0x0 build/objs/stm32f4xx_ll_fmc.o
 .data          0x0000000020000110        0x0 build/objs/stm32f4xx_hal_ltdc_ex.o
 .data          0x0000000020000110        0x0 build/objs/stm32f4xx_hal_flash_ramfunc.o
 .data          0x0000000020000110        0x0 build/objs/stm32f4xx_hal_cortex.o
 .data          0x0000000020000110        0x0 build/objs/stm32f4xx_hal_iwdg.o
 .data          0x0000000020000110        0x0 build/objs/stm32f4xx_hal_uart.o
 .data          0x0000000020000110        0x0 build/objs/stm32f4xx_hal_tim_ex.o
 .data          0x0000000020000110        0x0 build/objs/stm32f4xx_hal_i2c_ex.o
 .data          0x0000000020000110        0x0 build/objs/stm32f4xx_hal_dma.o
 .data          0x0000000020000110        0x0 build/objs/stm32f4xx_hal_dac.o
 .data          0x0000000020000110        0x0 build/objs/stm32f4xx_hal_spdifrx.o
 .data          0x0000000020000110        0x0 build/objs/stm32f4xx_hal_fmpi2c_ex.o
 .data          0x0000000020000110        0x0 build/objs/stm32f4xx_ll_sdmmc.o
 .data          0x0000000020000110        0x0 build/objs/stm32f4xx_hal_i2s_ex.o
 .data          0x0000000020000110        0x0 build/objs/stm32f4xx_hal_can.o
 .data          0x0000000020000110        0x0 build/objs/stm32f4xx_hal_nor.o
 .data          0x0000000020000110        0x0 build/objs/stm32f4xx_hal_pwr.o
 .data          0x0000000020000110        0x0 build/objs/stm32f4xx_hal_rtc.o
 .data          0x0000000020000110        0x0 build/objs/stm32f4xx_hal_qspi.o
 .data          0x0000000020000110        0x0 build/objs/stm32f4xx_hal_hash_ex.o
 .data          0x0000000020000110        0x0 build/objs/stm32f4xx_hal_i2s.o
 .data          0x0000000020000110        0x0 build/objs/stm32f4xx_hal_sram.o
 .data          0x0000000020000110        0x0 build/objs/stm32f4xx_hal_hash.o
 .data          0x0000000020000110        0x0 build/objs/stm32f4xx_hal_eth.o
 .data          0x0000000020000110        0x0 build/objs/stm32f4xx_hal_tim.o
 .data          0x0000000020000110        0x0 build/objs/stm32f4xx_hal_dma_ex.o
 .data          0x0000000020000110        0x0 build/objs/stm32f4xx_hal_sd.o
 .data          0x0000000020000110        0x0 build/objs/stm32f4xx_hal_sai_ex.o
 .data          0x0000000020000110        0x0 build/objs/stm32f4xx_hal_rcc.o
 .data          0x0000000020000110        0x0 build/objs/stm32f4xx_hal_wwdg.o
 .data          0x0000000020000110        0x0 build/objs/stm32f4xx_hal_dac_ex.o
 .data          0x0000000020000110        0x0 build/objs/stm32f4xx_hal_rtc_ex.o
 .data          0x0000000020000110        0x0 build/objs/stm32f4xx_hal_pwr_ex.o
 .data          0x0000000020000110        0x0 build/objs/stm32f4xx_hal_dcmi.o
 .data          0x0000000020000110        0x0 build/objs/stm32f4xx_hal_sdram.o
 .data          0x0000000020000110        0x0 build/objs/stm32f4xx_hal_flash.o
 .data          0x0000000020000110        0x0 build/objs/stm32f4xx_hal_crc.o
 .data          0x0000000020000110        0x0 build/objs/stm32f4xx_hal_usart.o
 .data          0x0000000020000110       0x1c build/objs/stm32f4_discovery.o
                0x0000000020000110                GPIO_PORT
                0x0000000020000120                BUTTON_PORT
                0x0000000020000124                I2cxTimeout
                0x0000000020000128                SpixTimeout
 .data          0x000000002000012c        0x4 build/objs/system_stm32f4xx.o
                0x000000002000012c                SystemCoreClock
 .data          0x0000000020000130        0x0 build/objs/usbd_core.o
 .data          0x0000000020000130        0x0 build/objs/usbd_ctlreq.o
 .data          0x0000000020000130        0x0 build/objs/usbd_ioreq.o
 .data          0x0000000020000130       0x18 build/objs/usbd_cdc_if_template.o
                0x0000000020000130                USBD_CDC_Template_fops
                0x0000000020000140                linecoding
 .data          0x0000000020000148      0x110 build/objs/usbd_cdc.o
                0x0000000020000154                USBD_CDC
                0x000000002000018c                USBD_CDC_CfgHSDesc
                0x00000000200001d0                USBD_CDC_CfgFSDesc
                0x0000000020000214                USBD_CDC_OtherSpeedCfgDesc
 .data          0x0000000020000258        0x0 build/objs/startup_stm32f407xx.o
 .data          0x0000000020000258        0x0 /usr/lib/gcc/arm-none-eabi/4.9.3/../../../arm-none-eabi/lib/armv7e-m/fpu/libg.a(lib_a-errno.o)
 .data          0x0000000020000258        0x0 /usr/lib/gcc/arm-none-eabi/4.9.3/../../../arm-none-eabi/lib/armv7e-m/fpu/libg.a(lib_a-impure.o)
 .data          0x0000000020000258        0x0 /usr/lib/gcc/arm-none-eabi/4.9.3/../../../arm-none-eabi/lib/armv7e-m/fpu/libg.a(lib_a-malloc.o)
 .data          0x0000000020000258        0x0 /usr/lib/gcc/arm-none-eabi/4.9.3/../../../arm-none-eabi/lib/armv7e-m/fpu/libg.a(lib_a-mallocr.o)
 .data          0x0000000020000258        0x0 /usr/lib/gcc/arm-none-eabi/4.9.3/../../../arm-none-eabi/lib/armv7e-m/fpu/libg.a(lib_a-mlock.o)
 .data          0x0000000020000258        0x0 /usr/lib/gcc/arm-none-eabi/4.9.3/../../../arm-none-eabi/lib/armv7e-m/fpu/libg.a(lib_a-sbrkr.o)
 .data          0x0000000020000258        0x0 /usr/lib/gcc/arm-none-eabi/4.9.3/../../../arm-none-eabi/lib/armv7e-m/fpu/libg.a(lib_a-freer.o)
 .data          0x0000000020000258        0x0 /usr/lib/gcc/arm-none-eabi/4.9.3/../../../arm-none-eabi/lib/armv7e-m/fpu/libg.a(lib_a-reent.o)
 *(.data*)
 .data.impure_data
                0x0000000020000258      0x428 /usr/lib/gcc/arm-none-eabi/4.9.3/../../../arm-none-eabi/lib/armv7e-m/fpu/libg.a(lib_a-impure.o)
 .data._impure_ptr
                0x0000000020000680        0x4 /usr/lib/gcc/arm-none-eabi/4.9.3/../../../arm-none-eabi/lib/armv7e-m/fpu/libg.a(lib_a-impure.o)
                0x0000000020000680                _impure_ptr
 .data.__malloc_av_
                0x0000000020000684      0x408 /usr/lib/gcc/arm-none-eabi/4.9.3/../../../arm-none-eabi/lib/armv7e-m/fpu/libg.a(lib_a-mallocr.o)
                0x0000000020000684                __malloc_av_
 .data.__malloc_trim_threshold
                0x0000000020000a8c        0x4 /usr/lib/gcc/arm-none-eabi/4.9.3/../../../arm-none-eabi/lib/armv7e-m/fpu/libg.a(lib_a-mallocr.o)
                0x0000000020000a8c                __malloc_trim_threshold
 .data.__malloc_sbrk_base
                0x0000000020000a90        0x4 /usr/lib/gcc/arm-none-eabi/4.9.3/../../../arm-none-eabi/lib/armv7e-m/fpu/libg.a(lib_a-mallocr.o)
                0x0000000020000a90                __malloc_sbrk_base
                0x0000000020000a94                . = ALIGN (0x4)
                0x0000000020000a94                _edata = .
                0x0000000008017c94                _siccmram = LOADADDR (.ccmram)

.igot.plt       0x0000000020000a94        0x0 load address 0x0000000008017c94
 .igot.plt      0x0000000020000a94        0x0 build/objs/usbd_cdc_if.o

.ccmram         0x0000000010000000        0x0 load address 0x0000000008017c94
                0x0000000010000000                . = ALIGN (0x4)
                0x0000000010000000                _sccmram = .
 *(.ccmram)
 *(.ccmram*)
                0x0000000010000000                . = ALIGN (0x4)
                0x0000000010000000                _eccmram = .
                0x0000000010000000                . = ALIGN (0x4)

.bss            0x0000000020000a94      0xbbc
                0x0000000020000a94                _sbss = .
                0x0000000020000a94                __bss_start__ = _sbss
 *(.bss)
 .bss           0x0000000020000a94        0x0 build/objs/usbd_cdc_if.o
 .bss           0x0000000020000a94        0x0 build/objs/usbd_conf.o
 .bss           0x0000000020000a94        0x4 build/objs/syscalls.o
 .bss           0x0000000020000a98        0x0 build/objs/stm32f4xx_hal_msp.o
 .bss           0x0000000020000a98        0x0 build/objs/gpio.o
 .bss           0x0000000020000a98        0x0 build/objs/main.o
 .bss           0x0000000020000a98        0x0 build/objs/stm32f4xx_it.o
 .bss           0x0000000020000a98        0x0 build/objs/usb_device.o
 .bss           0x0000000020000a98        0x0 build/objs/usbd_desc.o
 .bss           0x0000000020000a98        0x4 build/objs/pcd8544.o
                0x0000000020000a98                PCD8544_UpdateXmin
                0x0000000020000a99                PCD8544_UpdateXmax
                0x0000000020000a9a                PCD8544_UpdateYmin
                0x0000000020000a9b                PCD8544_UpdateYmax
 .bss           0x0000000020000a9c        0x0 build/objs/stm32f4xx_hal_dsi.o
 .bss           0x0000000020000a9c        0x0 build/objs/stm32f4xx_hal_pcd.o
 .bss           0x0000000020000a9c        0x0 build/objs/stm32f4xx_hal_irda.o
 .bss           0x0000000020000a9c        0x0 build/objs/stm32f4xx_ll_fsmc.o
 .bss           0x0000000020000a9c        0x0 build/objs/stm32f4xx_hal_cec.o
 .bss           0x0000000020000a9c        0x0 build/objs/stm32f4xx_hal_timebase_tim_template.o
 .bss           0x0000000020000a9c        0x4 build/objs/stm32f4xx_ll_usb.o
 .bss           0x0000000020000aa0        0x0 build/objs/stm32f4xx_hal.o
 .bss           0x0000000020000aa0        0x0 build/objs/stm32f4xx_hal_dcmi_ex.o
 .bss           0x0000000020000aa0        0x0 build/objs/stm32f4xx_hal_flash_ex.o
 .bss           0x0000000020000aa0        0x0 build/objs/stm32f4xx_hal_cryp.o
 .bss           0x0000000020000aa0        0x0 build/objs/stm32f4xx_hal_rng.o
 .bss           0x0000000020000aa0        0x0 build/objs/stm32f4xx_hal_nand.o
 .bss           0x0000000020000aa0        0x0 build/objs/stm32f4xx_hal_gpio.o
 .bss           0x0000000020000aa0        0x0 build/objs/stm32f4xx_hal_ltdc.o
 .bss           0x0000000020000aa0        0x0 build/objs/stm32f4xx_hal_hcd.o
 .bss           0x0000000020000aa0        0x0 build/objs/stm32f4xx_hal_pcd_ex.o
 .bss           0x0000000020000aa0        0x0 build/objs/stm32f4xx_hal_adc.o
 .bss           0x0000000020000aa0        0x0 build/objs/stm32f4xx_hal_adc_ex.o
 .bss           0x0000000020000aa0        0x0 build/objs/stm32f4xx_hal_lptim.o
 .bss           0x0000000020000aa0        0x0 build/objs/stm32f4xx_hal_spi.o
 .bss           0x0000000020000aa0        0x0 build/objs/stm32f4xx_hal_i2c.o
 .bss           0x0000000020000aa0        0x0 build/objs/stm32f4xx_hal_fmpi2c.o
 .bss           0x0000000020000aa0        0x0 build/objs/stm32f4xx_hal_smartcard.o
 .bss           0x0000000020000aa0        0x0 build/objs/stm32f4xx_hal_pccard.o
 .bss           0x0000000020000aa0        0x0 build/objs/stm32f4xx_hal_dma2d.o
 .bss           0x0000000020000aa0        0x0 build/objs/stm32f4xx_hal_sai.o
 .bss           0x0000000020000aa0        0x0 build/objs/stm32f4xx_hal_cryp_ex.o
 .bss           0x0000000020000aa0        0x0 build/objs/stm32f4xx_hal_rcc_ex.o
 .bss           0x0000000020000aa0        0x0 build/objs/stm32f4xx_ll_fmc.o
 .bss           0x0000000020000aa0        0x0 build/objs/stm32f4xx_hal_ltdc_ex.o
 .bss           0x0000000020000aa0        0x0 build/objs/stm32f4xx_hal_flash_ramfunc.o
 .bss           0x0000000020000aa0        0x0 build/objs/stm32f4xx_hal_cortex.o
 .bss           0x0000000020000aa0        0x0 build/objs/stm32f4xx_hal_iwdg.o
 .bss           0x0000000020000aa0        0x0 build/objs/stm32f4xx_hal_uart.o
 .bss           0x0000000020000aa0        0x0 build/objs/stm32f4xx_hal_tim_ex.o
 .bss           0x0000000020000aa0        0x0 build/objs/stm32f4xx_hal_i2c_ex.o
 .bss           0x0000000020000aa0        0x0 build/objs/stm32f4xx_hal_dma.o
 .bss           0x0000000020000aa0        0x0 build/objs/stm32f4xx_hal_dac.o
 .bss           0x0000000020000aa0        0x0 build/objs/stm32f4xx_hal_spdifrx.o
 .bss           0x0000000020000aa0        0x0 build/objs/stm32f4xx_hal_fmpi2c_ex.o
 .bss           0x0000000020000aa0        0x0 build/objs/stm32f4xx_ll_sdmmc.o
 .bss           0x0000000020000aa0        0x0 build/objs/stm32f4xx_hal_i2s_ex.o
 .bss           0x0000000020000aa0        0x0 build/objs/stm32f4xx_hal_can.o
 .bss           0x0000000020000aa0        0x0 build/objs/stm32f4xx_hal_nor.o
 .bss           0x0000000020000aa0        0x0 build/objs/stm32f4xx_hal_pwr.o
 .bss           0x0000000020000aa0        0x0 build/objs/stm32f4xx_hal_rtc.o
 .bss           0x0000000020000aa0        0x0 build/objs/stm32f4xx_hal_qspi.o
 .bss           0x0000000020000aa0        0x0 build/objs/stm32f4xx_hal_hash_ex.o
 .bss           0x0000000020000aa0        0x0 build/objs/stm32f4xx_hal_i2s.o
 .bss           0x0000000020000aa0        0x0 build/objs/stm32f4xx_hal_sram.o
 .bss           0x0000000020000aa0        0x0 build/objs/stm32f4xx_hal_hash.o
 .bss           0x0000000020000aa0        0x0 build/objs/stm32f4xx_hal_eth.o
 .bss           0x0000000020000aa0        0x0 build/objs/stm32f4xx_hal_tim.o
 .bss           0x0000000020000aa0        0x0 build/objs/stm32f4xx_hal_dma_ex.o
 .bss           0x0000000020000aa0        0x0 build/objs/stm32f4xx_hal_sd.o
 .bss           0x0000000020000aa0        0x0 build/objs/stm32f4xx_hal_sai_ex.o
 .bss           0x0000000020000aa0        0x0 build/objs/stm32f4xx_hal_rcc.o
 .bss           0x0000000020000aa0        0x0 build/objs/stm32f4xx_hal_wwdg.o
 .bss           0x0000000020000aa0        0x0 build/objs/stm32f4xx_hal_dac_ex.o
 .bss           0x0000000020000aa0        0x0 build/objs/stm32f4xx_hal_rtc_ex.o
 .bss           0x0000000020000aa0        0x0 build/objs/stm32f4xx_hal_pwr_ex.o
 .bss           0x0000000020000aa0        0x0 build/objs/stm32f4xx_hal_dcmi.o
 .bss           0x0000000020000aa0        0x0 build/objs/stm32f4xx_hal_sdram.o
 .bss           0x0000000020000aa0        0x0 build/objs/stm32f4xx_hal_flash.o
 .bss           0x0000000020000aa0        0x0 build/objs/stm32f4xx_hal_crc.o
 .bss           0x0000000020000aa0        0x0 build/objs/stm32f4xx_hal_usart.o
 .bss           0x0000000020000aa0       0x9c build/objs/stm32f4_discovery.o
 .bss           0x0000000020000b3c        0x0 build/objs/system_stm32f4xx.o
 .bss           0x0000000020000b3c        0x0 build/objs/usbd_core.o
 .bss           0x0000000020000b3c        0x1 build/objs/usbd_ctlreq.o
 .bss           0x0000000020000b3d        0x0 build/objs/usbd_ioreq.o
 .bss           0x0000000020000b3d        0x0 build/objs/usbd_cdc_if_template.o
 .bss           0x0000000020000b3d        0x1 build/objs/usbd_cdc.o
 .bss           0x0000000020000b3e        0x0 build/objs/startup_stm32f407xx.o
 .bss           0x0000000020000b3e        0x0 /usr/lib/gcc/arm-none-eabi/4.9.3/../../../arm-none-eabi/lib/armv7e-m/fpu/libg.a(lib_a-errno.o)
 .bss           0x0000000020000b3e        0x0 /usr/lib/gcc/arm-none-eabi/4.9.3/../../../arm-none-eabi/lib/armv7e-m/fpu/libg.a(lib_a-impure.o)
 .bss           0x0000000020000b3e        0x0 /usr/lib/gcc/arm-none-eabi/4.9.3/../../../arm-none-eabi/lib/armv7e-m/fpu/libg.a(lib_a-malloc.o)
 .bss           0x0000000020000b3e        0x0 /usr/lib/gcc/arm-none-eabi/4.9.3/../../../arm-none-eabi/lib/armv7e-m/fpu/libg.a(lib_a-mallocr.o)
 .bss           0x0000000020000b3e        0x0 /usr/lib/gcc/arm-none-eabi/4.9.3/../../../arm-none-eabi/lib/armv7e-m/fpu/libg.a(lib_a-mlock.o)
 .bss           0x0000000020000b3e        0x0 /usr/lib/gcc/arm-none-eabi/4.9.3/../../../arm-none-eabi/lib/armv7e-m/fpu/libg.a(lib_a-sbrkr.o)
 .bss           0x0000000020000b3e        0x0 /usr/lib/gcc/arm-none-eabi/4.9.3/../../../arm-none-eabi/lib/armv7e-m/fpu/libg.a(lib_a-freer.o)
 .bss           0x0000000020000b3e        0x0 /usr/lib/gcc/arm-none-eabi/4.9.3/../../../arm-none-eabi/lib/armv7e-m/fpu/libg.a(lib_a-reent.o)
 *(.bss*)
 *fill*         0x0000000020000b3e        0x2 
 .bss.__malloc_max_total_mem
                0x0000000020000b40        0x4 /usr/lib/gcc/arm-none-eabi/4.9.3/../../../arm-none-eabi/lib/armv7e-m/fpu/libg.a(lib_a-mallocr.o)
                0x0000000020000b40                __malloc_max_total_mem
 .bss.__malloc_max_sbrked_mem
                0x0000000020000b44        0x4 /usr/lib/gcc/arm-none-eabi/4.9.3/../../../arm-none-eabi/lib/armv7e-m/fpu/libg.a(lib_a-mallocr.o)
                0x0000000020000b44                __malloc_max_sbrked_mem
 .bss.__malloc_top_pad
                0x0000000020000b48        0x4 /usr/lib/gcc/arm-none-eabi/4.9.3/../../../arm-none-eabi/lib/armv7e-m/fpu/libg.a(lib_a-mallocr.o)
                0x0000000020000b48                __malloc_top_pad
 .bss.__malloc_current_mallinfo
                0x0000000020000b4c       0x28 /usr/lib/gcc/arm-none-eabi/4.9.3/../../../arm-none-eabi/lib/armv7e-m/fpu/libg.a(lib_a-mallocr.o)
                0x0000000020000b4c                __malloc_current_mallinfo
 *(COMMON)
 COMMON         0x0000000020000b74        0xc build/objs/usbd_cdc_if.o
                0x0000000020000b74                hUsbDevice_0
                0x0000000020000b78                UserRxBufferFS
                0x0000000020000b7c                UserTxBufferFS
 COMMON         0x0000000020000b80      0x3b8 build/objs/usbd_conf.o
                0x0000000020000b80                hpcd_USB_OTG_FS
 COMMON         0x0000000020000f38      0x224 build/objs/usb_device.o
                0x0000000020000f38                hUsbDeviceFS
 COMMON         0x000000002000115c      0x200 build/objs/usbd_desc.o
                0x000000002000115c                USBD_StrDesc
 COMMON         0x000000002000135c      0x290 build/objs/pcd8544.o
                0x000000002000135c                PCD8544_y
                0x000000002000135d                PCD8544_x
                0x0000000020001360                PCD8544_Buffer
                0x0000000020001558                hSPI
                0x00000000200015b0                hTIM
 COMMON         0x00000000200015ec       0x3c build/objs/stm32f4xx_hal_timebase_tim_template.o
                0x00000000200015ec                TimHandle
 COMMON         0x0000000020001628        0x4 build/objs/stm32f4xx_hal.o
                0x0000000020001628                uwTick
 COMMON         0x000000002000162c       0x20 build/objs/stm32f4xx_hal_flash.o
                0x000000002000162c                pFlash
 COMMON         0x000000002000164c        0x4 /usr/lib/gcc/arm-none-eabi/4.9.3/../../../arm-none-eabi/lib/armv7e-m/fpu/libg.a(lib_a-reent.o)
                0x000000002000164c                errno
                0x0000000020001650                . = ALIGN (0x4)
                0x0000000020001650                _ebss = .
                0x0000000020001650                __bss_end__ = _ebss

._user_heap_stack
                0x0000000020001650      0x600
                0x0000000020001650                . = ALIGN (0x4)
                0x0000000020001650                PROVIDE (end, .)
                [!provide]                        PROVIDE (_end, .)
                0x0000000020001850                . = (. + _Min_Heap_Size)
 *fill*         0x0000000020001650      0x200 
                0x0000000020001c50                . = (. + _Min_Stack_Size)
 *fill*         0x0000000020001850      0x400 
                0x0000000020001c50                . = ALIGN (0x4)

/DISCARD/
 libc.a(*)
 libm.a(*)
 libgcc.a(*)

.ARM.attributes
                0x0000000000000000       0x37
 *(.ARM.attributes)
 .ARM.attributes
                0x0000000000000000       0x39 build/objs/usbd_cdc_if.o
 .ARM.attributes
                0x0000000000000039       0x39 build/objs/usbd_conf.o
 .ARM.attributes
                0x0000000000000072       0x39 build/objs/syscalls.o
 .ARM.attributes
                0x00000000000000ab       0x39 build/objs/stm32f4xx_hal_msp.o
 .ARM.attributes
                0x00000000000000e4       0x39 build/objs/gpio.o
 .ARM.attributes
                0x000000000000011d       0x39 build/objs/main.o
 .ARM.attributes
                0x0000000000000156       0x39 build/objs/stm32f4xx_it.o
 .ARM.attributes
                0x000000000000018f       0x39 build/objs/usb_device.o
 .ARM.attributes
                0x00000000000001c8       0x39 build/objs/usbd_desc.o
 .ARM.attributes
                0x0000000000000201       0x39 build/objs/pcd8544.o
 .ARM.attributes
                0x000000000000023a       0x39 build/objs/stm32f4xx_hal_dsi.o
 .ARM.attributes
                0x0000000000000273       0x39 build/objs/stm32f4xx_hal_pcd.o
 .ARM.attributes
                0x00000000000002ac       0x39 build/objs/stm32f4xx_hal_irda.o
 .ARM.attributes
                0x00000000000002e5       0x39 build/objs/stm32f4xx_ll_fsmc.o
 .ARM.attributes
                0x000000000000031e       0x39 build/objs/stm32f4xx_hal_cec.o
 .ARM.attributes
                0x0000000000000357       0x39 build/objs/stm32f4xx_hal_timebase_tim_template.o
 .ARM.attributes
                0x0000000000000390       0x39 build/objs/stm32f4xx_ll_usb.o
 .ARM.attributes
                0x00000000000003c9       0x39 build/objs/stm32f4xx_hal.o
 .ARM.attributes
                0x0000000000000402       0x39 build/objs/stm32f4xx_hal_dcmi_ex.o
 .ARM.attributes
                0x000000000000043b       0x39 build/objs/stm32f4xx_hal_flash_ex.o
 .ARM.attributes
                0x0000000000000474       0x39 build/objs/stm32f4xx_hal_cryp.o
 .ARM.attributes
                0x00000000000004ad       0x39 build/objs/stm32f4xx_hal_rng.o
 .ARM.attributes
                0x00000000000004e6       0x39 build/objs/stm32f4xx_hal_nand.o
 .ARM.attributes
                0x000000000000051f       0x39 build/objs/stm32f4xx_hal_gpio.o
 .ARM.attributes
                0x0000000000000558       0x39 build/objs/stm32f4xx_hal_ltdc.o
 .ARM.attributes
                0x0000000000000591       0x39 build/objs/stm32f4xx_hal_hcd.o
 .ARM.attributes
                0x00000000000005ca       0x39 build/objs/stm32f4xx_hal_pcd_ex.o
 .ARM.attributes
                0x0000000000000603       0x39 build/objs/stm32f4xx_hal_adc.o
 .ARM.attributes
                0x000000000000063c       0x39 build/objs/stm32f4xx_hal_adc_ex.o
 .ARM.attributes
                0x0000000000000675       0x39 build/objs/stm32f4xx_hal_lptim.o
 .ARM.attributes
                0x00000000000006ae       0x39 build/objs/stm32f4xx_hal_spi.o
 .ARM.attributes
                0x00000000000006e7       0x39 build/objs/stm32f4xx_hal_i2c.o
 .ARM.attributes
                0x0000000000000720       0x39 build/objs/stm32f4xx_hal_fmpi2c.o
 .ARM.attributes
                0x0000000000000759       0x39 build/objs/stm32f4xx_hal_smartcard.o
 .ARM.attributes
                0x0000000000000792       0x39 build/objs/stm32f4xx_hal_pccard.o
 .ARM.attributes
                0x00000000000007cb       0x39 build/objs/stm32f4xx_hal_dma2d.o
 .ARM.attributes
                0x0000000000000804       0x39 build/objs/stm32f4xx_hal_sai.o
 .ARM.attributes
                0x000000000000083d       0x39 build/objs/stm32f4xx_hal_cryp_ex.o
 .ARM.attributes
                0x0000000000000876       0x39 build/objs/stm32f4xx_hal_rcc_ex.o
 .ARM.attributes
                0x00000000000008af       0x39 build/objs/stm32f4xx_ll_fmc.o
 .ARM.attributes
                0x00000000000008e8       0x39 build/objs/stm32f4xx_hal_ltdc_ex.o
 .ARM.attributes
                0x0000000000000921       0x39 build/objs/stm32f4xx_hal_flash_ramfunc.o
 .ARM.attributes
                0x000000000000095a       0x39 build/objs/stm32f4xx_hal_cortex.o
 .ARM.attributes
                0x0000000000000993       0x39 build/objs/stm32f4xx_hal_iwdg.o
 .ARM.attributes
                0x00000000000009cc       0x39 build/objs/stm32f4xx_hal_uart.o
 .ARM.attributes
                0x0000000000000a05       0x39 build/objs/stm32f4xx_hal_tim_ex.o
 .ARM.attributes
                0x0000000000000a3e       0x39 build/objs/stm32f4xx_hal_i2c_ex.o
 .ARM.attributes
                0x0000000000000a77       0x39 build/objs/stm32f4xx_hal_dma.o
 .ARM.attributes
                0x0000000000000ab0       0x39 build/objs/stm32f4xx_hal_dac.o
 .ARM.attributes
                0x0000000000000ae9       0x39 build/objs/stm32f4xx_hal_spdifrx.o
 .ARM.attributes
                0x0000000000000b22       0x39 build/objs/stm32f4xx_hal_fmpi2c_ex.o
 .ARM.attributes
                0x0000000000000b5b       0x39 build/objs/stm32f4xx_ll_sdmmc.o
 .ARM.attributes
                0x0000000000000b94       0x39 build/objs/stm32f4xx_hal_i2s_ex.o
 .ARM.attributes
                0x0000000000000bcd       0x39 build/objs/stm32f4xx_hal_can.o
 .ARM.attributes
                0x0000000000000c06       0x39 build/objs/stm32f4xx_hal_nor.o
 .ARM.attributes
                0x0000000000000c3f       0x39 build/objs/stm32f4xx_hal_pwr.o
 .ARM.attributes
                0x0000000000000c78       0x39 build/objs/stm32f4xx_hal_rtc.o
 .ARM.attributes
                0x0000000000000cb1       0x39 build/objs/stm32f4xx_hal_qspi.o
 .ARM.attributes
                0x0000000000000cea       0x39 build/objs/stm32f4xx_hal_hash_ex.o
 .ARM.attributes
                0x0000000000000d23       0x39 build/objs/stm32f4xx_hal_i2s.o
 .ARM.attributes
                0x0000000000000d5c       0x39 build/objs/stm32f4xx_hal_sram.o
 .ARM.attributes
                0x0000000000000d95       0x39 build/objs/stm32f4xx_hal_hash.o
 .ARM.attributes
                0x0000000000000dce       0x39 build/objs/stm32f4xx_hal_eth.o
 .ARM.attributes
                0x0000000000000e07       0x39 build/objs/stm32f4xx_hal_tim.o
 .ARM.attributes
                0x0000000000000e40       0x39 build/objs/stm32f4xx_hal_dma_ex.o
 .ARM.attributes
                0x0000000000000e79       0x39 build/objs/stm32f4xx_hal_sd.o
 .ARM.attributes
                0x0000000000000eb2       0x39 build/objs/stm32f4xx_hal_sai_ex.o
 .ARM.attributes
                0x0000000000000eeb       0x39 build/objs/stm32f4xx_hal_rcc.o
 .ARM.attributes
                0x0000000000000f24       0x39 build/objs/stm32f4xx_hal_wwdg.o
 .ARM.attributes
                0x0000000000000f5d       0x39 build/objs/stm32f4xx_hal_dac_ex.o
 .ARM.attributes
                0x0000000000000f96       0x39 build/objs/stm32f4xx_hal_rtc_ex.o
 .ARM.attributes
                0x0000000000000fcf       0x39 build/objs/stm32f4xx_hal_pwr_ex.o
 .ARM.attributes
                0x0000000000001008       0x39 build/objs/stm32f4xx_hal_dcmi.o
 .ARM.attributes
                0x0000000000001041       0x39 build/objs/stm32f4xx_hal_sdram.o
 .ARM.attributes
                0x000000000000107a       0x39 build/objs/stm32f4xx_hal_flash.o
 .ARM.attributes
                0x00000000000010b3       0x39 build/objs/stm32f4xx_hal_crc.o
 .ARM.attributes
                0x00000000000010ec       0x39 build/objs/stm32f4xx_hal_usart.o
 .ARM.attributes
                0x0000000000001125       0x39 build/objs/stm32f4_discovery.o
 .ARM.attributes
                0x000000000000115e       0x39 build/objs/system_stm32f4xx.o
 .ARM.attributes
                0x0000000000001197       0x39 build/objs/usbd_core.o
 .ARM.attributes
                0x00000000000011d0       0x39 build/objs/usbd_ctlreq.o
 .ARM.attributes
                0x0000000000001209       0x39 build/objs/usbd_ioreq.o
 .ARM.attributes
                0x0000000000001242       0x39 build/objs/usbd_cdc_if_template.o
 .ARM.attributes
                0x000000000000127b       0x39 build/objs/usbd_cdc.o
 .ARM.attributes
                0x00000000000012b4       0x21 build/objs/startup_stm32f407xx.o
 .ARM.attributes
                0x00000000000012d5       0x34 /usr/lib/gcc/arm-none-eabi/4.9.3/../../../arm-none-eabi/lib/armv7e-m/fpu/libg.a(lib_a-errno.o)
 .ARM.attributes
                0x0000000000001309       0x34 /usr/lib/gcc/arm-none-eabi/4.9.3/../../../arm-none-eabi/lib/armv7e-m/fpu/libg.a(lib_a-impure.o)
 .ARM.attributes
                0x000000000000133d       0x34 /usr/lib/gcc/arm-none-eabi/4.9.3/../../../arm-none-eabi/lib/armv7e-m/fpu/libg.a(lib_a-malloc.o)
 .ARM.attributes
                0x0000000000001371       0x34 /usr/lib/gcc/arm-none-eabi/4.9.3/../../../arm-none-eabi/lib/armv7e-m/fpu/libg.a(lib_a-mallocr.o)
 .ARM.attributes
                0x00000000000013a5       0x34 /usr/lib/gcc/arm-none-eabi/4.9.3/../../../arm-none-eabi/lib/armv7e-m/fpu/libg.a(lib_a-mlock.o)
 .ARM.attributes
                0x00000000000013d9       0x34 /usr/lib/gcc/arm-none-eabi/4.9.3/../../../arm-none-eabi/lib/armv7e-m/fpu/libg.a(lib_a-sbrkr.o)
 .ARM.attributes
                0x000000000000140d       0x34 /usr/lib/gcc/arm-none-eabi/4.9.3/../../../arm-none-eabi/lib/armv7e-m/fpu/libg.a(lib_a-freer.o)
 .ARM.attributes
                0x0000000000001441       0x34 /usr/lib/gcc/arm-none-eabi/4.9.3/../../../arm-none-eabi/lib/armv7e-m/fpu/libg.a(lib_a-reent.o)
OUTPUT(build/reflow_oven.elf elf32-littlearm)

.debug_info     0x0000000000000000    0x1e398
 .debug_info    0x0000000000000000      0x761 build/objs/usbd_cdc_if.o
 .debug_info    0x0000000000000761     0x1478 build/objs/usbd_conf.o
 .debug_info    0x0000000000001bd9      0x6c2 build/objs/syscalls.o
 .debug_info    0x000000000000229b      0x2f8 build/objs/stm32f4xx_hal_msp.o
 .debug_info    0x0000000000002593      0x2b1 build/objs/gpio.o
 .debug_info    0x0000000000002844      0xa91 build/objs/main.o
 .debug_info    0x00000000000032d5      0x4c1 build/objs/stm32f4xx_it.o
 .debug_info    0x0000000000003796      0x585 build/objs/usb_device.o
 .debug_info    0x0000000000003d1b      0x37c build/objs/usbd_desc.o
 .debug_info    0x0000000000004097     0x13c8 build/objs/pcd8544.o
 .debug_info    0x000000000000545f       0x99 build/objs/stm32f4xx_hal_dsi.o
 .debug_info    0x00000000000054f8      0xe9a build/objs/stm32f4xx_hal_pcd.o
 .debug_info    0x0000000000006392       0x99 build/objs/stm32f4xx_hal_irda.o
 .debug_info    0x000000000000642b       0x99 build/objs/stm32f4xx_ll_fsmc.o
 .debug_info    0x00000000000064c4       0x99 build/objs/stm32f4xx_hal_cec.o
 .debug_info    0x000000000000655d      0xab3 build/objs/stm32f4xx_hal_timebase_tim_template.o
 .debug_info    0x0000000000007010     0x13e4 build/objs/stm32f4xx_ll_usb.o
 .debug_info    0x00000000000083f4      0x843 build/objs/stm32f4xx_hal.o
 .debug_info    0x0000000000008c37       0x99 build/objs/stm32f4xx_hal_dcmi_ex.o
 .debug_info    0x0000000000008cd0      0x6c3 build/objs/stm32f4xx_hal_flash_ex.o
 .debug_info    0x0000000000009393       0x99 build/objs/stm32f4xx_hal_cryp.o
 .debug_info    0x000000000000942c       0x99 build/objs/stm32f4xx_hal_rng.o
 .debug_info    0x00000000000094c5       0x99 build/objs/stm32f4xx_hal_nand.o
 .debug_info    0x000000000000955e      0x6f8 build/objs/stm32f4xx_hal_gpio.o
 .debug_info    0x0000000000009c56       0x99 build/objs/stm32f4xx_hal_ltdc.o
 .debug_info    0x0000000000009cef       0x99 build/objs/stm32f4xx_hal_hcd.o
 .debug_info    0x0000000000009d88      0x55a build/objs/stm32f4xx_hal_pcd_ex.o
 .debug_info    0x000000000000a2e2       0x99 build/objs/stm32f4xx_hal_adc.o
 .debug_info    0x000000000000a37b       0x99 build/objs/stm32f4xx_hal_adc_ex.o
 .debug_info    0x000000000000a414       0x99 build/objs/stm32f4xx_hal_lptim.o
 .debug_info    0x000000000000a4ad     0x129f build/objs/stm32f4xx_hal_spi.o
 .debug_info    0x000000000000b74c     0x1ed3 build/objs/stm32f4xx_hal_i2c.o
 .debug_info    0x000000000000d61f       0x99 build/objs/stm32f4xx_hal_fmpi2c.o
 .debug_info    0x000000000000d6b8       0x99 build/objs/stm32f4xx_hal_smartcard.o
 .debug_info    0x000000000000d751       0x99 build/objs/stm32f4xx_hal_pccard.o
 .debug_info    0x000000000000d7ea       0x99 build/objs/stm32f4xx_hal_dma2d.o
 .debug_info    0x000000000000d883       0x99 build/objs/stm32f4xx_hal_sai.o
 .debug_info    0x000000000000d91c       0x99 build/objs/stm32f4xx_hal_cryp_ex.o
 .debug_info    0x000000000000d9b5      0x4fe build/objs/stm32f4xx_hal_rcc_ex.o
 .debug_info    0x000000000000deb3       0x99 build/objs/stm32f4xx_ll_fmc.o
 .debug_info    0x000000000000df4c       0x99 build/objs/stm32f4xx_hal_ltdc_ex.o
 .debug_info    0x000000000000dfe5       0x99 build/objs/stm32f4xx_hal_flash_ramfunc.o
 .debug_info    0x000000000000e07e      0xd09 build/objs/stm32f4xx_hal_cortex.o
 .debug_info    0x000000000000ed87       0x99 build/objs/stm32f4xx_hal_iwdg.o
 .debug_info    0x000000000000ee20       0x99 build/objs/stm32f4xx_hal_uart.o
 .debug_info    0x000000000000eeb9      0xf3c build/objs/stm32f4xx_hal_tim_ex.o
 .debug_info    0x000000000000fdf5       0x99 build/objs/stm32f4xx_hal_i2c_ex.o
 .debug_info    0x000000000000fe8e      0x6ea build/objs/stm32f4xx_hal_dma.o
 .debug_info    0x0000000000010578       0x99 build/objs/stm32f4xx_hal_dac.o
 .debug_info    0x0000000000010611       0x99 build/objs/stm32f4xx_hal_spdifrx.o
 .debug_info    0x00000000000106aa       0x99 build/objs/stm32f4xx_hal_fmpi2c_ex.o
 .debug_info    0x0000000000010743       0x99 build/objs/stm32f4xx_ll_sdmmc.o
 .debug_info    0x00000000000107dc       0x99 build/objs/stm32f4xx_hal_i2s_ex.o
 .debug_info    0x0000000000010875       0x99 build/objs/stm32f4xx_hal_can.o
 .debug_info    0x000000000001090e       0x99 build/objs/stm32f4xx_hal_nor.o
 .debug_info    0x00000000000109a7      0x833 build/objs/stm32f4xx_hal_pwr.o
 .debug_info    0x00000000000111da       0x99 build/objs/stm32f4xx_hal_rtc.o
 .debug_info    0x0000000000011273       0x99 build/objs/stm32f4xx_hal_qspi.o
 .debug_info    0x000000000001130c       0x99 build/objs/stm32f4xx_hal_hash_ex.o
 .debug_info    0x00000000000113a5       0x99 build/objs/stm32f4xx_hal_i2s.o
 .debug_info    0x000000000001143e       0x99 build/objs/stm32f4xx_hal_sram.o
 .debug_info    0x00000000000114d7       0x99 build/objs/stm32f4xx_hal_hash.o
 .debug_info    0x0000000000011570       0x99 build/objs/stm32f4xx_hal_eth.o
 .debug_info    0x0000000000011609     0x2176 build/objs/stm32f4xx_hal_tim.o
 .debug_info    0x000000000001377f      0x4af build/objs/stm32f4xx_hal_dma_ex.o
 .debug_info    0x0000000000013c2e       0x99 build/objs/stm32f4xx_hal_sd.o
 .debug_info    0x0000000000013cc7       0x99 build/objs/stm32f4xx_hal_sai_ex.o
 .debug_info    0x0000000000013d60      0xb11 build/objs/stm32f4xx_hal_rcc.o
 .debug_info    0x0000000000014871       0x99 build/objs/stm32f4xx_hal_wwdg.o
 .debug_info    0x000000000001490a       0x99 build/objs/stm32f4xx_hal_dac_ex.o
 .debug_info    0x00000000000149a3       0x99 build/objs/stm32f4xx_hal_rtc_ex.o
 .debug_info    0x0000000000014a3c      0x4bb build/objs/stm32f4xx_hal_pwr_ex.o
 .debug_info    0x0000000000014ef7       0x99 build/objs/stm32f4xx_hal_dcmi.o
 .debug_info    0x0000000000014f90       0x99 build/objs/stm32f4xx_hal_sdram.o
 .debug_info    0x0000000000015029      0x542 build/objs/stm32f4xx_hal_flash.o
 .debug_info    0x000000000001556b       0x99 build/objs/stm32f4xx_hal_crc.o
 .debug_info    0x0000000000015604       0x99 build/objs/stm32f4xx_hal_usart.o
 .debug_info    0x000000000001569d     0x13b1 build/objs/stm32f4_discovery.o
 .debug_info    0x0000000000016a4e      0x4a0 build/objs/system_stm32f4xx.o
 .debug_info    0x0000000000016eee      0x8fb build/objs/usbd_core.o
 .debug_info    0x00000000000177e9      0x85c build/objs/usbd_ctlreq.o
 .debug_info    0x0000000000018045      0x65c build/objs/usbd_ioreq.o
 .debug_info    0x00000000000186a1      0x29b build/objs/usbd_cdc_if_template.o
 .debug_info    0x000000000001893c      0xa47 build/objs/usbd_cdc.o
 .debug_info    0x0000000000019383       0xa5 build/objs/startup_stm32f407xx.o
 .debug_info    0x0000000000019428      0x889 /usr/lib/gcc/arm-none-eabi/4.9.3/../../../arm-none-eabi/lib/armv7e-m/fpu/libg.a(lib_a-errno.o)
 .debug_info    0x0000000000019cb1      0x894 /usr/lib/gcc/arm-none-eabi/4.9.3/../../../arm-none-eabi/lib/armv7e-m/fpu/libg.a(lib_a-impure.o)
 .debug_info    0x000000000001a545      0x915 /usr/lib/gcc/arm-none-eabi/4.9.3/../../../arm-none-eabi/lib/armv7e-m/fpu/libg.a(lib_a-malloc.o)
 .debug_info    0x000000000001ae5a      0xd81 /usr/lib/gcc/arm-none-eabi/4.9.3/../../../arm-none-eabi/lib/armv7e-m/fpu/libg.a(lib_a-mallocr.o)
 .debug_info    0x000000000001bbdb      0x8b4 /usr/lib/gcc/arm-none-eabi/4.9.3/../../../arm-none-eabi/lib/armv7e-m/fpu/libg.a(lib_a-mlock.o)
 .debug_info    0x000000000001c48f      0x8f4 /usr/lib/gcc/arm-none-eabi/4.9.3/../../../arm-none-eabi/lib/armv7e-m/fpu/libg.a(lib_a-sbrkr.o)
 .debug_info    0x000000000001cd83      0xc1a /usr/lib/gcc/arm-none-eabi/4.9.3/../../../arm-none-eabi/lib/armv7e-m/fpu/libg.a(lib_a-freer.o)
 .debug_info    0x000000000001d99d      0x9fb /usr/lib/gcc/arm-none-eabi/4.9.3/../../../arm-none-eabi/lib/armv7e-m/fpu/libg.a(lib_a-reent.o)

.debug_abbrev   0x0000000000000000     0x5c10
 .debug_abbrev  0x0000000000000000      0x1e5 build/objs/usbd_cdc_if.o
 .debug_abbrev  0x00000000000001e5      0x21b build/objs/usbd_conf.o
 .debug_abbrev  0x0000000000000400      0x16d build/objs/syscalls.o
 .debug_abbrev  0x000000000000056d       0x7d build/objs/stm32f4xx_hal_msp.o
 .debug_abbrev  0x00000000000005ea       0xd6 build/objs/gpio.o
 .debug_abbrev  0x00000000000006c0      0x191 build/objs/main.o
 .debug_abbrev  0x0000000000000851      0x13e build/objs/stm32f4xx_it.o
 .debug_abbrev  0x000000000000098f      0x134 build/objs/usb_device.o
 .debug_abbrev  0x0000000000000ac3      0x13a build/objs/usbd_desc.o
 .debug_abbrev  0x0000000000000bfd      0x1fc build/objs/pcd8544.o
 .debug_abbrev  0x0000000000000df9       0x4b build/objs/stm32f4xx_hal_dsi.o
 .debug_abbrev  0x0000000000000e44      0x238 build/objs/stm32f4xx_hal_pcd.o
 .debug_abbrev  0x000000000000107c       0x4b build/objs/stm32f4xx_hal_irda.o
 .debug_abbrev  0x00000000000010c7       0x4b build/objs/stm32f4xx_ll_fsmc.o
 .debug_abbrev  0x0000000000001112       0x4b build/objs/stm32f4xx_hal_cec.o
 .debug_abbrev  0x000000000000115d      0x1a5 build/objs/stm32f4xx_hal_timebase_tim_template.o
 .debug_abbrev  0x0000000000001302      0x213 build/objs/stm32f4xx_ll_usb.o
 .debug_abbrev  0x0000000000001515      0x1f0 build/objs/stm32f4xx_hal.o
 .debug_abbrev  0x0000000000001705       0x4b build/objs/stm32f4xx_hal_dcmi_ex.o
 .debug_abbrev  0x0000000000001750      0x257 build/objs/stm32f4xx_hal_flash_ex.o
 .debug_abbrev  0x00000000000019a7       0x4b build/objs/stm32f4xx_hal_cryp.o
 .debug_abbrev  0x00000000000019f2       0x4b build/objs/stm32f4xx_hal_rng.o
 .debug_abbrev  0x0000000000001a3d       0x4b build/objs/stm32f4xx_hal_nand.o
 .debug_abbrev  0x0000000000001a88      0x1aa build/objs/stm32f4xx_hal_gpio.o
 .debug_abbrev  0x0000000000001c32       0x4b build/objs/stm32f4xx_hal_ltdc.o
 .debug_abbrev  0x0000000000001c7d       0x4b build/objs/stm32f4xx_hal_hcd.o
 .debug_abbrev  0x0000000000001cc8      0x15e build/objs/stm32f4xx_hal_pcd_ex.o
 .debug_abbrev  0x0000000000001e26       0x4b build/objs/stm32f4xx_hal_adc.o
 .debug_abbrev  0x0000000000001e71       0x4b build/objs/stm32f4xx_hal_adc_ex.o
 .debug_abbrev  0x0000000000001ebc       0x4b build/objs/stm32f4xx_hal_lptim.o
 .debug_abbrev  0x0000000000001f07      0x1f7 build/objs/stm32f4xx_hal_spi.o
 .debug_abbrev  0x00000000000020fe      0x1ea build/objs/stm32f4xx_hal_i2c.o
 .debug_abbrev  0x00000000000022e8       0x4b build/objs/stm32f4xx_hal_fmpi2c.o
 .debug_abbrev  0x0000000000002333       0x4b build/objs/stm32f4xx_hal_smartcard.o
 .debug_abbrev  0x000000000000237e       0x4b build/objs/stm32f4xx_hal_pccard.o
 .debug_abbrev  0x00000000000023c9       0x4b build/objs/stm32f4xx_hal_dma2d.o
 .debug_abbrev  0x0000000000002414       0x4b build/objs/stm32f4xx_hal_sai.o
 .debug_abbrev  0x000000000000245f       0x4b build/objs/stm32f4xx_hal_cryp_ex.o
 .debug_abbrev  0x00000000000024aa      0x195 build/objs/stm32f4xx_hal_rcc_ex.o
 .debug_abbrev  0x000000000000263f       0x4b build/objs/stm32f4xx_ll_fmc.o
 .debug_abbrev  0x000000000000268a       0x4b build/objs/stm32f4xx_hal_ltdc_ex.o
 .debug_abbrev  0x00000000000026d5       0x4b build/objs/stm32f4xx_hal_flash_ramfunc.o
 .debug_abbrev  0x0000000000002720      0x2be build/objs/stm32f4xx_hal_cortex.o
 .debug_abbrev  0x00000000000029de       0x4b build/objs/stm32f4xx_hal_iwdg.o
 .debug_abbrev  0x0000000000002a29       0x4b build/objs/stm32f4xx_hal_uart.o
 .debug_abbrev  0x0000000000002a74      0x1fb build/objs/stm32f4xx_hal_tim_ex.o
 .debug_abbrev  0x0000000000002c6f       0x4b build/objs/stm32f4xx_hal_i2c_ex.o
 .debug_abbrev  0x0000000000002cba      0x204 build/objs/stm32f4xx_hal_dma.o
 .debug_abbrev  0x0000000000002ebe       0x4b build/objs/stm32f4xx_hal_dac.o
 .debug_abbrev  0x0000000000002f09       0x4b build/objs/stm32f4xx_hal_spdifrx.o
 .debug_abbrev  0x0000000000002f54       0x4b build/objs/stm32f4xx_hal_fmpi2c_ex.o
 .debug_abbrev  0x0000000000002f9f       0x4b build/objs/stm32f4xx_ll_sdmmc.o
 .debug_abbrev  0x0000000000002fea       0x4b build/objs/stm32f4xx_hal_i2s_ex.o
 .debug_abbrev  0x0000000000003035       0x4b build/objs/stm32f4xx_hal_can.o
 .debug_abbrev  0x0000000000003080       0x4b build/objs/stm32f4xx_hal_nor.o
 .debug_abbrev  0x00000000000030cb      0x1f3 build/objs/stm32f4xx_hal_pwr.o
 .debug_abbrev  0x00000000000032be       0x4b build/objs/stm32f4xx_hal_rtc.o
 .debug_abbrev  0x0000000000003309       0x4b build/objs/stm32f4xx_hal_qspi.o
 .debug_abbrev  0x0000000000003354       0x4b build/objs/stm32f4xx_hal_hash_ex.o
 .debug_abbrev  0x000000000000339f       0x4b build/objs/stm32f4xx_hal_i2s.o
 .debug_abbrev  0x00000000000033ea       0x4b build/objs/stm32f4xx_hal_sram.o
 .debug_abbrev  0x0000000000003435       0x4b build/objs/stm32f4xx_hal_hash.o
 .debug_abbrev  0x0000000000003480       0x4b build/objs/stm32f4xx_hal_eth.o
 .debug_abbrev  0x00000000000034cb      0x204 build/objs/stm32f4xx_hal_tim.o
 .debug_abbrev  0x00000000000036cf      0x156 build/objs/stm32f4xx_hal_dma_ex.o
 .debug_abbrev  0x0000000000003825       0x4b build/objs/stm32f4xx_hal_sd.o
 .debug_abbrev  0x0000000000003870       0x4b build/objs/stm32f4xx_hal_sai_ex.o
 .debug_abbrev  0x00000000000038bb      0x294 build/objs/stm32f4xx_hal_rcc.o
 .debug_abbrev  0x0000000000003b4f       0x4b build/objs/stm32f4xx_hal_wwdg.o
 .debug_abbrev  0x0000000000003b9a       0x4b build/objs/stm32f4xx_hal_dac_ex.o
 .debug_abbrev  0x0000000000003be5       0x4b build/objs/stm32f4xx_hal_rtc_ex.o
 .debug_abbrev  0x0000000000003c30      0x197 build/objs/stm32f4xx_hal_pwr_ex.o
 .debug_abbrev  0x0000000000003dc7       0x4b build/objs/stm32f4xx_hal_dcmi.o
 .debug_abbrev  0x0000000000003e12       0x4b build/objs/stm32f4xx_hal_sdram.o
 .debug_abbrev  0x0000000000003e5d      0x1dd build/objs/stm32f4xx_hal_flash.o
 .debug_abbrev  0x000000000000403a       0x4b build/objs/stm32f4xx_hal_crc.o
 .debug_abbrev  0x0000000000004085       0x4b build/objs/stm32f4xx_hal_usart.o
 .debug_abbrev  0x00000000000040d0      0x259 build/objs/stm32f4_discovery.o
 .debug_abbrev  0x0000000000004329      0x101 build/objs/system_stm32f4xx.o
 .debug_abbrev  0x000000000000442a      0x1bb build/objs/usbd_core.o
 .debug_abbrev  0x00000000000045e5      0x1eb build/objs/usbd_ctlreq.o
 .debug_abbrev  0x00000000000047d0      0x12b build/objs/usbd_ioreq.o
 .debug_abbrev  0x00000000000048fb       0xff build/objs/usbd_cdc_if_template.o
 .debug_abbrev  0x00000000000049fa      0x1e0 build/objs/usbd_cdc.o
 .debug_abbrev  0x0000000000004bda       0x12 build/objs/startup_stm32f407xx.o
 .debug_abbrev  0x0000000000004bec      0x18f /usr/lib/gcc/arm-none-eabi/4.9.3/../../../arm-none-eabi/lib/armv7e-m/fpu/libg.a(lib_a-errno.o)
 .debug_abbrev  0x0000000000004d7b      0x180 /usr/lib/gcc/arm-none-eabi/4.9.3/../../../arm-none-eabi/lib/armv7e-m/fpu/libg.a(lib_a-impure.o)
 .debug_abbrev  0x0000000000004efb      0x1fa /usr/lib/gcc/arm-none-eabi/4.9.3/../../../arm-none-eabi/lib/armv7e-m/fpu/libg.a(lib_a-malloc.o)
 .debug_abbrev  0x00000000000050f5      0x2a2 /usr/lib/gcc/arm-none-eabi/4.9.3/../../../arm-none-eabi/lib/armv7e-m/fpu/libg.a(lib_a-mallocr.o)
 .debug_abbrev  0x0000000000005397      0x19a /usr/lib/gcc/arm-none-eabi/4.9.3/../../../arm-none-eabi/lib/armv7e-m/fpu/libg.a(lib_a-mlock.o)
 .debug_abbrev  0x0000000000005531      0x1fd /usr/lib/gcc/arm-none-eabi/4.9.3/../../../arm-none-eabi/lib/armv7e-m/fpu/libg.a(lib_a-sbrkr.o)
 .debug_abbrev  0x000000000000572e      0x28a /usr/lib/gcc/arm-none-eabi/4.9.3/../../../arm-none-eabi/lib/armv7e-m/fpu/libg.a(lib_a-freer.o)
 .debug_abbrev  0x00000000000059b8      0x258 /usr/lib/gcc/arm-none-eabi/4.9.3/../../../arm-none-eabi/lib/armv7e-m/fpu/libg.a(lib_a-reent.o)

.debug_aranges  0x0000000000000000      0xa40
 .debug_aranges
                0x0000000000000000       0x20 build/objs/usbd_cdc_if.o
 .debug_aranges
                0x0000000000000020       0x20 build/objs/usbd_conf.o
 .debug_aranges
                0x0000000000000040       0x20 build/objs/syscalls.o
 .debug_aranges
                0x0000000000000060       0x20 build/objs/stm32f4xx_hal_msp.o
 .debug_aranges
                0x0000000000000080       0x20 build/objs/gpio.o
 .debug_aranges
                0x00000000000000a0       0x20 build/objs/main.o
 .debug_aranges
                0x00000000000000c0       0x20 build/objs/stm32f4xx_it.o
 .debug_aranges
                0x00000000000000e0       0x20 build/objs/usb_device.o
 .debug_aranges
                0x0000000000000100       0x20 build/objs/usbd_desc.o
 .debug_aranges
                0x0000000000000120       0x20 build/objs/pcd8544.o
 .debug_aranges
                0x0000000000000140       0x18 build/objs/stm32f4xx_hal_dsi.o
 .debug_aranges
                0x0000000000000158       0x20 build/objs/stm32f4xx_hal_pcd.o
 .debug_aranges
                0x0000000000000178       0x18 build/objs/stm32f4xx_hal_irda.o
 .debug_aranges
                0x0000000000000190       0x18 build/objs/stm32f4xx_ll_fsmc.o
 .debug_aranges
                0x00000000000001a8       0x18 build/objs/stm32f4xx_hal_cec.o
 .debug_aranges
                0x00000000000001c0       0x20 build/objs/stm32f4xx_hal_timebase_tim_template.o
 .debug_aranges
                0x00000000000001e0       0x20 build/objs/stm32f4xx_ll_usb.o
 .debug_aranges
                0x0000000000000200       0x20 build/objs/stm32f4xx_hal.o
 .debug_aranges
                0x0000000000000220       0x18 build/objs/stm32f4xx_hal_dcmi_ex.o
 .debug_aranges
                0x0000000000000238       0x20 build/objs/stm32f4xx_hal_flash_ex.o
 .debug_aranges
                0x0000000000000258       0x18 build/objs/stm32f4xx_hal_cryp.o
 .debug_aranges
                0x0000000000000270       0x18 build/objs/stm32f4xx_hal_rng.o
 .debug_aranges
                0x0000000000000288       0x18 build/objs/stm32f4xx_hal_nand.o
 .debug_aranges
                0x00000000000002a0       0x20 build/objs/stm32f4xx_hal_gpio.o
 .debug_aranges
                0x00000000000002c0       0x18 build/objs/stm32f4xx_hal_ltdc.o
 .debug_aranges
                0x00000000000002d8       0x18 build/objs/stm32f4xx_hal_hcd.o
 .debug_aranges
                0x00000000000002f0       0x20 build/objs/stm32f4xx_hal_pcd_ex.o
 .debug_aranges
                0x0000000000000310       0x18 build/objs/stm32f4xx_hal_adc.o
 .debug_aranges
                0x0000000000000328       0x18 build/objs/stm32f4xx_hal_adc_ex.o
 .debug_aranges
                0x0000000000000340       0x18 build/objs/stm32f4xx_hal_lptim.o
 .debug_aranges
                0x0000000000000358       0x20 build/objs/stm32f4xx_hal_spi.o
 .debug_aranges
                0x0000000000000378       0x20 build/objs/stm32f4xx_hal_i2c.o
 .debug_aranges
                0x0000000000000398       0x18 build/objs/stm32f4xx_hal_fmpi2c.o
 .debug_aranges
                0x00000000000003b0       0x18 build/objs/stm32f4xx_hal_smartcard.o
 .debug_aranges
                0x00000000000003c8       0x18 build/objs/stm32f4xx_hal_pccard.o
 .debug_aranges
                0x00000000000003e0       0x18 build/objs/stm32f4xx_hal_dma2d.o
 .debug_aranges
                0x00000000000003f8       0x18 build/objs/stm32f4xx_hal_sai.o
 .debug_aranges
                0x0000000000000410       0x18 build/objs/stm32f4xx_hal_cryp_ex.o
 .debug_aranges
                0x0000000000000428       0x20 build/objs/stm32f4xx_hal_rcc_ex.o
 .debug_aranges
                0x0000000000000448       0x18 build/objs/stm32f4xx_ll_fmc.o
 .debug_aranges
                0x0000000000000460       0x18 build/objs/stm32f4xx_hal_ltdc_ex.o
 .debug_aranges
                0x0000000000000478       0x18 build/objs/stm32f4xx_hal_flash_ramfunc.o
 .debug_aranges
                0x0000000000000490       0x20 build/objs/stm32f4xx_hal_cortex.o
 .debug_aranges
                0x00000000000004b0       0x18 build/objs/stm32f4xx_hal_iwdg.o
 .debug_aranges
                0x00000000000004c8       0x18 build/objs/stm32f4xx_hal_uart.o
 .debug_aranges
                0x00000000000004e0       0x20 build/objs/stm32f4xx_hal_tim_ex.o
 .debug_aranges
                0x0000000000000500       0x18 build/objs/stm32f4xx_hal_i2c_ex.o
 .debug_aranges
                0x0000000000000518       0x20 build/objs/stm32f4xx_hal_dma.o
 .debug_aranges
                0x0000000000000538       0x18 build/objs/stm32f4xx_hal_dac.o
 .debug_aranges
                0x0000000000000550       0x18 build/objs/stm32f4xx_hal_spdifrx.o
 .debug_aranges
                0x0000000000000568       0x18 build/objs/stm32f4xx_hal_fmpi2c_ex.o
 .debug_aranges
                0x0000000000000580       0x18 build/objs/stm32f4xx_ll_sdmmc.o
 .debug_aranges
                0x0000000000000598       0x18 build/objs/stm32f4xx_hal_i2s_ex.o
 .debug_aranges
                0x00000000000005b0       0x18 build/objs/stm32f4xx_hal_can.o
 .debug_aranges
                0x00000000000005c8       0x18 build/objs/stm32f4xx_hal_nor.o
 .debug_aranges
                0x00000000000005e0       0x20 build/objs/stm32f4xx_hal_pwr.o
 .debug_aranges
                0x0000000000000600       0x18 build/objs/stm32f4xx_hal_rtc.o
 .debug_aranges
                0x0000000000000618       0x18 build/objs/stm32f4xx_hal_qspi.o
 .debug_aranges
                0x0000000000000630       0x18 build/objs/stm32f4xx_hal_hash_ex.o
 .debug_aranges
                0x0000000000000648       0x18 build/objs/stm32f4xx_hal_i2s.o
 .debug_aranges
                0x0000000000000660       0x18 build/objs/stm32f4xx_hal_sram.o
 .debug_aranges
                0x0000000000000678       0x18 build/objs/stm32f4xx_hal_hash.o
 .debug_aranges
                0x0000000000000690       0x18 build/objs/stm32f4xx_hal_eth.o
 .debug_aranges
                0x00000000000006a8       0x20 build/objs/stm32f4xx_hal_tim.o
 .debug_aranges
                0x00000000000006c8       0x20 build/objs/stm32f4xx_hal_dma_ex.o
 .debug_aranges
                0x00000000000006e8       0x18 build/objs/stm32f4xx_hal_sd.o
 .debug_aranges
                0x0000000000000700       0x18 build/objs/stm32f4xx_hal_sai_ex.o
 .debug_aranges
                0x0000000000000718       0x20 build/objs/stm32f4xx_hal_rcc.o
 .debug_aranges
                0x0000000000000738       0x18 build/objs/stm32f4xx_hal_wwdg.o
 .debug_aranges
                0x0000000000000750       0x18 build/objs/stm32f4xx_hal_dac_ex.o
 .debug_aranges
                0x0000000000000768       0x18 build/objs/stm32f4xx_hal_rtc_ex.o
 .debug_aranges
                0x0000000000000780       0x20 build/objs/stm32f4xx_hal_pwr_ex.o
 .debug_aranges
                0x00000000000007a0       0x18 build/objs/stm32f4xx_hal_dcmi.o
 .debug_aranges
                0x00000000000007b8       0x18 build/objs/stm32f4xx_hal_sdram.o
 .debug_aranges
                0x00000000000007d0       0x20 build/objs/stm32f4xx_hal_flash.o
 .debug_aranges
                0x00000000000007f0       0x18 build/objs/stm32f4xx_hal_crc.o
 .debug_aranges
                0x0000000000000808       0x18 build/objs/stm32f4xx_hal_usart.o
 .debug_aranges
                0x0000000000000820       0x20 build/objs/stm32f4_discovery.o
 .debug_aranges
                0x0000000000000840       0x20 build/objs/system_stm32f4xx.o
 .debug_aranges
                0x0000000000000860       0x20 build/objs/usbd_core.o
 .debug_aranges
                0x0000000000000880       0x20 build/objs/usbd_ctlreq.o
 .debug_aranges
                0x00000000000008a0       0x20 build/objs/usbd_ioreq.o
 .debug_aranges
                0x00000000000008c0       0x20 build/objs/usbd_cdc_if_template.o
 .debug_aranges
                0x00000000000008e0       0x20 build/objs/usbd_cdc.o
 .debug_aranges
                0x0000000000000900       0x28 build/objs/startup_stm32f407xx.o
 .debug_aranges
                0x0000000000000928       0x20 /usr/lib/gcc/arm-none-eabi/4.9.3/../../../arm-none-eabi/lib/armv7e-m/fpu/libg.a(lib_a-errno.o)
 .debug_aranges
                0x0000000000000948       0x18 /usr/lib/gcc/arm-none-eabi/4.9.3/../../../arm-none-eabi/lib/armv7e-m/fpu/libg.a(lib_a-impure.o)
 .debug_aranges
                0x0000000000000960       0x28 /usr/lib/gcc/arm-none-eabi/4.9.3/../../../arm-none-eabi/lib/armv7e-m/fpu/libg.a(lib_a-malloc.o)
 .debug_aranges
                0x0000000000000988       0x20 /usr/lib/gcc/arm-none-eabi/4.9.3/../../../arm-none-eabi/lib/armv7e-m/fpu/libg.a(lib_a-mallocr.o)
 .debug_aranges
                0x00000000000009a8       0x28 /usr/lib/gcc/arm-none-eabi/4.9.3/../../../arm-none-eabi/lib/armv7e-m/fpu/libg.a(lib_a-mlock.o)
 .debug_aranges
                0x00000000000009d0       0x20 /usr/lib/gcc/arm-none-eabi/4.9.3/../../../arm-none-eabi/lib/armv7e-m/fpu/libg.a(lib_a-sbrkr.o)
 .debug_aranges
                0x00000000000009f0       0x28 /usr/lib/gcc/arm-none-eabi/4.9.3/../../../arm-none-eabi/lib/armv7e-m/fpu/libg.a(lib_a-freer.o)
 .debug_aranges
                0x0000000000000a18       0x28 /usr/lib/gcc/arm-none-eabi/4.9.3/../../../arm-none-eabi/lib/armv7e-m/fpu/libg.a(lib_a-reent.o)

.debug_line     0x0000000000000000     0xab5a
 .debug_line    0x0000000000000000      0x1b5 build/objs/usbd_cdc_if.o
 .debug_line    0x00000000000001b5      0x2d9 build/objs/usbd_conf.o
 .debug_line    0x000000000000048e      0x11e build/objs/syscalls.o
 .debug_line    0x00000000000005ac      0x137 build/objs/stm32f4xx_hal_msp.o
 .debug_line    0x00000000000006e3      0x126 build/objs/gpio.o
 .debug_line    0x0000000000000809      0x281 build/objs/main.o
 .debug_line    0x0000000000000a8a      0x1b2 build/objs/stm32f4xx_it.o
 .debug_line    0x0000000000000c3c      0x1b0 build/objs/usb_device.o
 .debug_line    0x0000000000000dec      0x15c build/objs/usbd_desc.o
 .debug_line    0x0000000000000f48      0x3ce build/objs/pcd8544.o
 .debug_line    0x0000000000001316       0xab build/objs/stm32f4xx_hal_dsi.o
 .debug_line    0x00000000000013c1      0x51f build/objs/stm32f4xx_hal_pcd.o
 .debug_line    0x00000000000018e0       0xab build/objs/stm32f4xx_hal_irda.o
 .debug_line    0x000000000000198b       0xab build/objs/stm32f4xx_ll_fsmc.o
 .debug_line    0x0000000000001a36       0xab build/objs/stm32f4xx_hal_cec.o
 .debug_line    0x0000000000001ae1      0x235 build/objs/stm32f4xx_hal_timebase_tim_template.o
 .debug_line    0x0000000000001d16      0x5b6 build/objs/stm32f4xx_ll_usb.o
 .debug_line    0x00000000000022cc      0x251 build/objs/stm32f4xx_hal.o
 .debug_line    0x000000000000251d       0xab build/objs/stm32f4xx_hal_dcmi_ex.o
 .debug_line    0x00000000000025c8      0x31a build/objs/stm32f4xx_hal_flash_ex.o
 .debug_line    0x00000000000028e2       0xab build/objs/stm32f4xx_hal_cryp.o
 .debug_line    0x000000000000298d       0xab build/objs/stm32f4xx_hal_rng.o
 .debug_line    0x0000000000002a38       0xab build/objs/stm32f4xx_hal_nand.o
 .debug_line    0x0000000000002ae3      0x367 build/objs/stm32f4xx_hal_gpio.o
 .debug_line    0x0000000000002e4a       0xab build/objs/stm32f4xx_hal_ltdc.o
 .debug_line    0x0000000000002ef5       0xab build/objs/stm32f4xx_hal_hcd.o
 .debug_line    0x0000000000002fa0      0x207 build/objs/stm32f4xx_hal_pcd_ex.o
 .debug_line    0x00000000000031a7       0xab build/objs/stm32f4xx_hal_adc.o
 .debug_line    0x0000000000003252       0xab build/objs/stm32f4xx_hal_adc_ex.o
 .debug_line    0x00000000000032fd       0xab build/objs/stm32f4xx_hal_lptim.o
 .debug_line    0x00000000000033a8      0x7b1 build/objs/stm32f4xx_hal_spi.o
 .debug_line    0x0000000000003b59      0xfeb build/objs/stm32f4xx_hal_i2c.o
 .debug_line    0x0000000000004b44       0xab build/objs/stm32f4xx_hal_fmpi2c.o
 .debug_line    0x0000000000004bef       0xab build/objs/stm32f4xx_hal_smartcard.o
 .debug_line    0x0000000000004c9a       0xab build/objs/stm32f4xx_hal_pccard.o
 .debug_line    0x0000000000004d45       0xab build/objs/stm32f4xx_hal_dma2d.o
 .debug_line    0x0000000000004df0       0xab build/objs/stm32f4xx_hal_sai.o
 .debug_line    0x0000000000004e9b       0xab build/objs/stm32f4xx_hal_cryp_ex.o
 .debug_line    0x0000000000004f46      0x27f build/objs/stm32f4xx_hal_rcc_ex.o
 .debug_line    0x00000000000051c5       0xab build/objs/stm32f4xx_ll_fmc.o
 .debug_line    0x0000000000005270       0xab build/objs/stm32f4xx_hal_ltdc_ex.o
 .debug_line    0x000000000000531b       0xab build/objs/stm32f4xx_hal_flash_ramfunc.o
 .debug_line    0x00000000000053c6      0x2fd build/objs/stm32f4xx_hal_cortex.o
 .debug_line    0x00000000000056c3       0xab build/objs/stm32f4xx_hal_iwdg.o
 .debug_line    0x000000000000576e       0xab build/objs/stm32f4xx_hal_uart.o
 .debug_line    0x0000000000005819      0x5ed build/objs/stm32f4xx_hal_tim_ex.o
 .debug_line    0x0000000000005e06       0xab build/objs/stm32f4xx_hal_i2c_ex.o
 .debug_line    0x0000000000005eb1      0x32c build/objs/stm32f4xx_hal_dma.o
 .debug_line    0x00000000000061dd       0xab build/objs/stm32f4xx_hal_dac.o
 .debug_line    0x0000000000006288       0xab build/objs/stm32f4xx_hal_spdifrx.o
 .debug_line    0x0000000000006333       0xab build/objs/stm32f4xx_hal_fmpi2c_ex.o
 .debug_line    0x00000000000063de       0xab build/objs/stm32f4xx_ll_sdmmc.o
 .debug_line    0x0000000000006489       0xab build/objs/stm32f4xx_hal_i2s_ex.o
 .debug_line    0x0000000000006534       0xab build/objs/stm32f4xx_hal_can.o
 .debug_line    0x00000000000065df       0xab build/objs/stm32f4xx_hal_nor.o
 .debug_line    0x000000000000668a      0x291 build/objs/stm32f4xx_hal_pwr.o
 .debug_line    0x000000000000691b       0xab build/objs/stm32f4xx_hal_rtc.o
 .debug_line    0x00000000000069c6       0xab build/objs/stm32f4xx_hal_qspi.o
 .debug_line    0x0000000000006a71       0xab build/objs/stm32f4xx_hal_hash_ex.o
 .debug_line    0x0000000000006b1c       0xab build/objs/stm32f4xx_hal_i2s.o
 .debug_line    0x0000000000006bc7       0xab build/objs/stm32f4xx_hal_sram.o
 .debug_line    0x0000000000006c72       0xab build/objs/stm32f4xx_hal_hash.o
 .debug_line    0x0000000000006d1d       0xab build/objs/stm32f4xx_hal_eth.o
 .debug_line    0x0000000000006dc8      0xe29 build/objs/stm32f4xx_hal_tim.o
 .debug_line    0x0000000000007bf1      0x23a build/objs/stm32f4xx_hal_dma_ex.o
 .debug_line    0x0000000000007e2b       0xab build/objs/stm32f4xx_hal_sd.o
 .debug_line    0x0000000000007ed6       0xab build/objs/stm32f4xx_hal_sai_ex.o
 .debug_line    0x0000000000007f81      0x46d build/objs/stm32f4xx_hal_rcc.o
 .debug_line    0x00000000000083ee       0xab build/objs/stm32f4xx_hal_wwdg.o
 .debug_line    0x0000000000008499       0xab build/objs/stm32f4xx_hal_dac_ex.o
 .debug_line    0x0000000000008544       0xab build/objs/stm32f4xx_hal_rtc_ex.o
 .debug_line    0x00000000000085ef      0x238 build/objs/stm32f4xx_hal_pwr_ex.o
 .debug_line    0x0000000000008827       0xab build/objs/stm32f4xx_hal_dcmi.o
 .debug_line    0x00000000000088d2       0xab build/objs/stm32f4xx_hal_sdram.o
 .debug_line    0x000000000000897d      0x2d3 build/objs/stm32f4xx_hal_flash.o
 .debug_line    0x0000000000008c50       0xab build/objs/stm32f4xx_hal_crc.o
 .debug_line    0x0000000000008cfb       0xab build/objs/stm32f4xx_hal_usart.o
 .debug_line    0x0000000000008da6      0x32e build/objs/stm32f4_discovery.o
 .debug_line    0x00000000000090d4      0x195 build/objs/system_stm32f4xx.o
 .debug_line    0x0000000000009269      0x259 build/objs/usbd_core.o
 .debug_line    0x00000000000094c2      0x2f3 build/objs/usbd_ctlreq.o
 .debug_line    0x00000000000097b5      0x19b build/objs/usbd_ioreq.o
 .debug_line    0x0000000000009950      0x1ad build/objs/usbd_cdc_if_template.o
 .debug_line    0x0000000000009afd      0x28b build/objs/usbd_cdc.o
 .debug_line    0x0000000000009d88       0xc4 build/objs/startup_stm32f407xx.o
 .debug_line    0x0000000000009e4c      0x106 /usr/lib/gcc/arm-none-eabi/4.9.3/../../../arm-none-eabi/lib/armv7e-m/fpu/libg.a(lib_a-errno.o)
 .debug_line    0x0000000000009f52       0xeb /usr/lib/gcc/arm-none-eabi/4.9.3/../../../arm-none-eabi/lib/armv7e-m/fpu/libg.a(lib_a-impure.o)
 .debug_line    0x000000000000a03d      0x161 /usr/lib/gcc/arm-none-eabi/4.9.3/../../../arm-none-eabi/lib/armv7e-m/fpu/libg.a(lib_a-malloc.o)
 .debug_line    0x000000000000a19e      0x37a /usr/lib/gcc/arm-none-eabi/4.9.3/../../../arm-none-eabi/lib/armv7e-m/fpu/libg.a(lib_a-mallocr.o)
 .debug_line    0x000000000000a518      0x109 /usr/lib/gcc/arm-none-eabi/4.9.3/../../../arm-none-eabi/lib/armv7e-m/fpu/libg.a(lib_a-mlock.o)
 .debug_line    0x000000000000a621      0x154 /usr/lib/gcc/arm-none-eabi/4.9.3/../../../arm-none-eabi/lib/armv7e-m/fpu/libg.a(lib_a-sbrkr.o)
 .debug_line    0x000000000000a775      0x25b /usr/lib/gcc/arm-none-eabi/4.9.3/../../../arm-none-eabi/lib/armv7e-m/fpu/libg.a(lib_a-freer.o)
 .debug_line    0x000000000000a9d0      0x18a /usr/lib/gcc/arm-none-eabi/4.9.3/../../../arm-none-eabi/lib/armv7e-m/fpu/libg.a(lib_a-reent.o)

.debug_str      0x0000000000000000     0x83ea
 .debug_str     0x0000000000000000      0x567 build/objs/usbd_cdc_if.o
                                        0x683 (size before relaxing)
 .debug_str     0x0000000000000567      0xc4c build/objs/usbd_conf.o
                                       0x1181 (size before relaxing)
 .debug_str     0x00000000000011b3      0x237 build/objs/syscalls.o
                                        0x399 (size before relaxing)
 .debug_str     0x00000000000013ea       0x2a build/objs/stm32f4xx_hal_msp.o
                                        0x672 (size before relaxing)
 .debug_str     0x0000000000001414       0x1e build/objs/gpio.o
                                        0x276 (size before relaxing)
 .debug_str     0x0000000000001432      0x1a7 build/objs/main.o
                                        0xca4 (size before relaxing)
 .debug_str     0x00000000000015d9       0x3b build/objs/stm32f4xx_it.o
                                        0x4cc (size before relaxing)
 .debug_str     0x0000000000001614       0x3b build/objs/usb_device.o
                                        0x59a (size before relaxing)
 .debug_str     0x000000000000164f      0x111 build/objs/usbd_desc.o
                                        0x395 (size before relaxing)
 .debug_str     0x0000000000001760      0x98f build/objs/pcd8544.o
                                        0xd8e (size before relaxing)
 .debug_str     0x00000000000020ef       0x4f build/objs/stm32f4xx_hal_dsi.o
                                        0x190 (size before relaxing)
 .debug_str     0x000000000000213e      0x3bb build/objs/stm32f4xx_hal_pcd.o
                                        0x9ae (size before relaxing)
 .debug_str     0x00000000000024f9       0x50 build/objs/stm32f4xx_hal_irda.o
                                        0x191 (size before relaxing)
 .debug_str     0x0000000000002549       0x4f build/objs/stm32f4xx_ll_fsmc.o
                                        0x190 (size before relaxing)
 .debug_str     0x0000000000002598       0x4f build/objs/stm32f4xx_hal_cec.o
                                        0x190 (size before relaxing)
 .debug_str     0x00000000000025e7      0x11b build/objs/stm32f4xx_hal_timebase_tim_template.o
                                        0xd62 (size before relaxing)
 .debug_str     0x0000000000002702      0x5c7 build/objs/stm32f4xx_ll_usb.o
                                        0xb66 (size before relaxing)
 .debug_str     0x0000000000002cc9      0x227 build/objs/stm32f4xx_hal.o
                                        0xa0f (size before relaxing)
 .debug_str     0x0000000000002ef0       0x53 build/objs/stm32f4xx_hal_dcmi_ex.o
                                        0x194 (size before relaxing)
 .debug_str     0x0000000000002f43      0x313 build/objs/stm32f4xx_hal_flash_ex.o
                                        0x573 (size before relaxing)
 .debug_str     0x0000000000003256       0x50 build/objs/stm32f4xx_hal_cryp.o
                                        0x191 (size before relaxing)
 .debug_str     0x00000000000032a6       0x4f build/objs/stm32f4xx_hal_rng.o
                                        0x190 (size before relaxing)
 .debug_str     0x00000000000032f5       0x50 build/objs/stm32f4xx_hal_nand.o
                                        0x191 (size before relaxing)
 .debug_str     0x0000000000003345      0x16a build/objs/stm32f4xx_hal_gpio.o
                                        0x4c0 (size before relaxing)
 .debug_str     0x00000000000034af       0x50 build/objs/stm32f4xx_hal_ltdc.o
                                        0x191 (size before relaxing)
 .debug_str     0x00000000000034ff       0x4f build/objs/stm32f4xx_hal_hcd.o
                                        0x190 (size before relaxing)
 .debug_str     0x000000000000354e       0x89 build/objs/stm32f4xx_hal_pcd_ex.o
                                        0x54c (size before relaxing)
 .debug_str     0x00000000000035d7       0x4f build/objs/stm32f4xx_hal_adc.o
                                        0x190 (size before relaxing)
 .debug_str     0x0000000000003626       0x52 build/objs/stm32f4xx_hal_adc_ex.o
                                        0x193 (size before relaxing)
 .debug_str     0x0000000000003678       0x51 build/objs/stm32f4xx_hal_lptim.o
                                        0x192 (size before relaxing)
 .debug_str     0x00000000000036c9      0x4ab build/objs/stm32f4xx_hal_spi.o
                                        0xb14 (size before relaxing)
 .debug_str     0x0000000000003b74      0x9b7 build/objs/stm32f4xx_hal_i2c.o
                                        0xe90 (size before relaxing)
 .debug_str     0x000000000000452b       0x52 build/objs/stm32f4xx_hal_fmpi2c.o
                                        0x193 (size before relaxing)
 .debug_str     0x000000000000457d       0x55 build/objs/stm32f4xx_hal_smartcard.o
                                        0x196 (size before relaxing)
 .debug_str     0x00000000000045d2       0x52 build/objs/stm32f4xx_hal_pccard.o
                                        0x193 (size before relaxing)
 .debug_str     0x0000000000004624       0x51 build/objs/stm32f4xx_hal_dma2d.o
                                        0x192 (size before relaxing)
 .debug_str     0x0000000000004675       0x4f build/objs/stm32f4xx_hal_sai.o
                                        0x190 (size before relaxing)
 .debug_str     0x00000000000046c4       0x53 build/objs/stm32f4xx_hal_cryp_ex.o
                                        0x194 (size before relaxing)
 .debug_str     0x0000000000004717      0x123 build/objs/stm32f4xx_hal_rcc_ex.o
                                        0x404 (size before relaxing)
 .debug_str     0x000000000000483a       0x4e build/objs/stm32f4xx_ll_fmc.o
                                        0x18f (size before relaxing)
 .debug_str     0x0000000000004888       0x53 build/objs/stm32f4xx_hal_ltdc_ex.o
                                        0x194 (size before relaxing)
 .debug_str     0x00000000000048db       0x59 build/objs/stm32f4xx_hal_flash_ramfunc.o
                                        0x19a (size before relaxing)
 .debug_str     0x0000000000004934      0x3a2 build/objs/stm32f4xx_hal_cortex.o
                                        0xbb8 (size before relaxing)
 .debug_str     0x0000000000004cd6       0x50 build/objs/stm32f4xx_hal_iwdg.o
                                        0x191 (size before relaxing)
 .debug_str     0x0000000000004d26       0x50 build/objs/stm32f4xx_hal_uart.o
                                        0x191 (size before relaxing)
 .debug_str     0x0000000000004d76      0x59f build/objs/stm32f4xx_hal_tim_ex.o
                                        0xc32 (size before relaxing)
 .debug_str     0x0000000000005315       0x52 build/objs/stm32f4xx_hal_i2c_ex.o
                                        0x193 (size before relaxing)
 .debug_str     0x0000000000005367      0x1ae build/objs/stm32f4xx_hal_dma.o
                                        0x626 (size before relaxing)
 .debug_str     0x0000000000005515       0x4f build/objs/stm32f4xx_hal_dac.o
                                        0x190 (size before relaxing)
 .debug_str     0x0000000000005564       0x53 build/objs/stm32f4xx_hal_spdifrx.o
                                        0x194 (size before relaxing)
 .debug_str     0x00000000000055b7       0x55 build/objs/stm32f4xx_hal_fmpi2c_ex.o
                                        0x196 (size before relaxing)
 .debug_str     0x000000000000560c       0x50 build/objs/stm32f4xx_ll_sdmmc.o
                                        0x191 (size before relaxing)
 .debug_str     0x000000000000565c       0x52 build/objs/stm32f4xx_hal_i2s_ex.o
                                        0x193 (size before relaxing)
 .debug_str     0x00000000000056ae       0x4f build/objs/stm32f4xx_hal_can.o
                                        0x190 (size before relaxing)
 .debug_str     0x00000000000056fd       0x4f build/objs/stm32f4xx_hal_nor.o
                                        0x190 (size before relaxing)
 .debug_str     0x000000000000574c      0x22f build/objs/stm32f4xx_hal_pwr.o
                                        0x53d (size before relaxing)
 .debug_str     0x000000000000597b       0x4f build/objs/stm32f4xx_hal_rtc.o
                                        0x190 (size before relaxing)
 .debug_str     0x00000000000059ca       0x50 build/objs/stm32f4xx_hal_qspi.o
                                        0x191 (size before relaxing)
 .debug_str     0x0000000000005a1a       0x53 build/objs/stm32f4xx_hal_hash_ex.o
                                        0x194 (size before relaxing)
 .debug_str     0x0000000000005a6d       0x4f build/objs/stm32f4xx_hal_i2s.o
                                        0x190 (size before relaxing)
 .debug_str     0x0000000000005abc       0x50 build/objs/stm32f4xx_hal_sram.o
                                        0x191 (size before relaxing)
 .debug_str     0x0000000000005b0c       0x50 build/objs/stm32f4xx_hal_hash.o
                                        0x191 (size before relaxing)
 .debug_str     0x0000000000005b5c       0x4f build/objs/stm32f4xx_hal_eth.o
                                        0x190 (size before relaxing)
 .debug_str     0x0000000000005bab      0xc43 build/objs/stm32f4xx_hal_tim.o
                                       0x137f (size before relaxing)
 .debug_str     0x00000000000067ee       0xf9 build/objs/stm32f4xx_hal_dma_ex.o
                                        0x561 (size before relaxing)
 .debug_str     0x00000000000068e7       0x4e build/objs/stm32f4xx_hal_sd.o
                                        0x18f (size before relaxing)
 .debug_str     0x0000000000006935       0x52 build/objs/stm32f4xx_hal_sai_ex.o
                                        0x193 (size before relaxing)
 .debug_str     0x0000000000006987      0x1ba build/objs/stm32f4xx_hal_rcc.o
                                        0x674 (size before relaxing)
 .debug_str     0x0000000000006b41       0x50 build/objs/stm32f4xx_hal_wwdg.o
                                        0x191 (size before relaxing)
 .debug_str     0x0000000000006b91       0x52 build/objs/stm32f4xx_hal_dac_ex.o
                                        0x193 (size before relaxing)
 .debug_str     0x0000000000006be3       0x52 build/objs/stm32f4xx_hal_rtc_ex.o
                                        0x193 (size before relaxing)
 .debug_str     0x0000000000006c35       0xfc build/objs/stm32f4xx_hal_pwr_ex.o
                                        0x3da (size before relaxing)
 .debug_str     0x0000000000006d31       0x50 build/objs/stm32f4xx_hal_dcmi.o
                                        0x191 (size before relaxing)
 .debug_str     0x0000000000006d81       0x51 build/objs/stm32f4xx_hal_sdram.o
                                        0x192 (size before relaxing)
 .debug_str     0x0000000000006dd2      0x1ee build/objs/stm32f4xx_hal_flash.o
                                        0x4f3 (size before relaxing)
 .debug_str     0x0000000000006fc0       0x4f build/objs/stm32f4xx_hal_crc.o
                                        0x190 (size before relaxing)
 .debug_str     0x000000000000700f       0x51 build/objs/stm32f4xx_hal_usart.o
                                        0x192 (size before relaxing)
 .debug_str     0x0000000000007060      0x2ba build/objs/stm32f4_discovery.o
                                       0x11cd (size before relaxing)
 .debug_str     0x000000000000731a       0x8b build/objs/system_stm32f4xx.o
                                        0x371 (size before relaxing)
 .debug_str     0x00000000000073a5      0x1cc build/objs/usbd_core.o
                                        0x70c (size before relaxing)
 .debug_str     0x0000000000007571      0x13d build/objs/usbd_ctlreq.o
                                        0x692 (size before relaxing)
 .debug_str     0x00000000000076ae       0xe0 build/objs/usbd_ioreq.o
                                        0x61a (size before relaxing)
 .debug_str     0x000000000000778e      0x107 build/objs/usbd_cdc_if_template.o
                                        0x2dc (size before relaxing)
 .debug_str     0x0000000000007895      0x20c build/objs/usbd_cdc.o
                                        0x7f3 (size before relaxing)
 .debug_str     0x0000000000007aa1      0x4b3 /usr/lib/gcc/arm-none-eabi/4.9.3/../../../arm-none-eabi/lib/armv7e-m/fpu/libg.a(lib_a-errno.o)
                                        0x5a7 (size before relaxing)
 .debug_str     0x0000000000007f54       0xb1 /usr/lib/gcc/arm-none-eabi/4.9.3/../../../arm-none-eabi/lib/armv7e-m/fpu/libg.a(lib_a-impure.o)
                                        0x5bf (size before relaxing)
 .debug_str     0x0000000000008005       0xbe /usr/lib/gcc/arm-none-eabi/4.9.3/../../../arm-none-eabi/lib/armv7e-m/fpu/libg.a(lib_a-malloc.o)
                                        0x5d3 (size before relaxing)
 .debug_str     0x00000000000080c3      0x224 /usr/lib/gcc/arm-none-eabi/4.9.3/../../../arm-none-eabi/lib/armv7e-m/fpu/libg.a(lib_a-mallocr.o)
                                        0x7ce (size before relaxing)
 .debug_str     0x00000000000082e7       0x45 /usr/lib/gcc/arm-none-eabi/4.9.3/../../../arm-none-eabi/lib/armv7e-m/fpu/libg.a(lib_a-mlock.o)
                                        0x5c8 (size before relaxing)
 .debug_str     0x000000000000832c       0x2f /usr/lib/gcc/arm-none-eabi/4.9.3/../../../arm-none-eabi/lib/armv7e-m/fpu/libg.a(lib_a-sbrkr.o)
                                        0x5b6 (size before relaxing)
 .debug_str     0x000000000000835b       0x34 /usr/lib/gcc/arm-none-eabi/4.9.3/../../../arm-none-eabi/lib/armv7e-m/fpu/libg.a(lib_a-freer.o)
                                        0x718 (size before relaxing)
 .debug_str     0x000000000000838f       0x5b /usr/lib/gcc/arm-none-eabi/4.9.3/../../../arm-none-eabi/lib/armv7e-m/fpu/libg.a(lib_a-reent.o)
                                        0x5de (size before relaxing)

.comment        0x0000000000000000       0x58
 .comment       0x0000000000000000       0x38 build/objs/usbd_cdc_if.o
                                         0x39 (size before relaxing)
 .comment       0x0000000000000038       0x39 build/objs/usbd_conf.o
 .comment       0x0000000000000038       0x39 build/objs/syscalls.o
 .comment       0x0000000000000038       0x39 build/objs/stm32f4xx_hal_msp.o
 .comment       0x0000000000000038       0x39 build/objs/gpio.o
 .comment       0x0000000000000038       0x39 build/objs/main.o
 .comment       0x0000000000000038       0x39 build/objs/stm32f4xx_it.o
 .comment       0x0000000000000038       0x39 build/objs/usb_device.o
 .comment       0x0000000000000038       0x39 build/objs/usbd_desc.o
 .comment       0x0000000000000038       0x39 build/objs/pcd8544.o
 .comment       0x0000000000000038       0x39 build/objs/stm32f4xx_hal_dsi.o
 .comment       0x0000000000000038       0x39 build/objs/stm32f4xx_hal_pcd.o
 .comment       0x0000000000000038       0x39 build/objs/stm32f4xx_hal_irda.o
 .comment       0x0000000000000038       0x39 build/objs/stm32f4xx_ll_fsmc.o
 .comment       0x0000000000000038       0x39 build/objs/stm32f4xx_hal_cec.o
 .comment       0x0000000000000038       0x39 build/objs/stm32f4xx_hal_timebase_tim_template.o
 .comment       0x0000000000000038       0x39 build/objs/stm32f4xx_ll_usb.o
 .comment       0x0000000000000038       0x39 build/objs/stm32f4xx_hal.o
 .comment       0x0000000000000038       0x39 build/objs/stm32f4xx_hal_dcmi_ex.o
 .comment       0x0000000000000038       0x39 build/objs/stm32f4xx_hal_flash_ex.o
 .comment       0x0000000000000038       0x39 build/objs/stm32f4xx_hal_cryp.o
 .comment       0x0000000000000038       0x39 build/objs/stm32f4xx_hal_rng.o
 .comment       0x0000000000000038       0x39 build/objs/stm32f4xx_hal_nand.o
 .comment       0x0000000000000038       0x39 build/objs/stm32f4xx_hal_gpio.o
 .comment       0x0000000000000038       0x39 build/objs/stm32f4xx_hal_ltdc.o
 .comment       0x0000000000000038       0x39 build/objs/stm32f4xx_hal_hcd.o
 .comment       0x0000000000000038       0x39 build/objs/stm32f4xx_hal_pcd_ex.o
 .comment       0x0000000000000038       0x39 build/objs/stm32f4xx_hal_adc.o
 .comment       0x0000000000000038       0x39 build/objs/stm32f4xx_hal_adc_ex.o
 .comment       0x0000000000000038       0x39 build/objs/stm32f4xx_hal_lptim.o
 .comment       0x0000000000000038       0x39 build/objs/stm32f4xx_hal_spi.o
 .comment       0x0000000000000038       0x39 build/objs/stm32f4xx_hal_i2c.o
 .comment       0x0000000000000038       0x39 build/objs/stm32f4xx_hal_fmpi2c.o
 .comment       0x0000000000000038       0x39 build/objs/stm32f4xx_hal_smartcard.o
 .comment       0x0000000000000038       0x39 build/objs/stm32f4xx_hal_pccard.o
 .comment       0x0000000000000038       0x39 build/objs/stm32f4xx_hal_dma2d.o
 .comment       0x0000000000000038       0x39 build/objs/stm32f4xx_hal_sai.o
 .comment       0x0000000000000038       0x39 build/objs/stm32f4xx_hal_cryp_ex.o
 .comment       0x0000000000000038       0x39 build/objs/stm32f4xx_hal_rcc_ex.o
 .comment       0x0000000000000038       0x39 build/objs/stm32f4xx_ll_fmc.o
 .comment       0x0000000000000038       0x39 build/objs/stm32f4xx_hal_ltdc_ex.o
 .comment       0x0000000000000038       0x39 build/objs/stm32f4xx_hal_flash_ramfunc.o
 .comment       0x0000000000000038       0x39 build/objs/stm32f4xx_hal_cortex.o
 .comment       0x0000000000000038       0x39 build/objs/stm32f4xx_hal_iwdg.o
 .comment       0x0000000000000038       0x39 build/objs/stm32f4xx_hal_uart.o
 .comment       0x0000000000000038       0x39 build/objs/stm32f4xx_hal_tim_ex.o
 .comment       0x0000000000000038       0x39 build/objs/stm32f4xx_hal_i2c_ex.o
 .comment       0x0000000000000038       0x39 build/objs/stm32f4xx_hal_dma.o
 .comment       0x0000000000000038       0x39 build/objs/stm32f4xx_hal_dac.o
 .comment       0x0000000000000038       0x39 build/objs/stm32f4xx_hal_spdifrx.o
 .comment       0x0000000000000038       0x39 build/objs/stm32f4xx_hal_fmpi2c_ex.o
 .comment       0x0000000000000038       0x39 build/objs/stm32f4xx_ll_sdmmc.o
 .comment       0x0000000000000038       0x39 build/objs/stm32f4xx_hal_i2s_ex.o
 .comment       0x0000000000000038       0x39 build/objs/stm32f4xx_hal_can.o
 .comment       0x0000000000000038       0x39 build/objs/stm32f4xx_hal_nor.o
 .comment       0x0000000000000038       0x39 build/objs/stm32f4xx_hal_pwr.o
 .comment       0x0000000000000038       0x39 build/objs/stm32f4xx_hal_rtc.o
 .comment       0x0000000000000038       0x39 build/objs/stm32f4xx_hal_qspi.o
 .comment       0x0000000000000038       0x39 build/objs/stm32f4xx_hal_hash_ex.o
 .comment       0x0000000000000038       0x39 build/objs/stm32f4xx_hal_i2s.o
 .comment       0x0000000000000038       0x39 build/objs/stm32f4xx_hal_sram.o
 .comment       0x0000000000000038       0x39 build/objs/stm32f4xx_hal_hash.o
 .comment       0x0000000000000038       0x39 build/objs/stm32f4xx_hal_eth.o
 .comment       0x0000000000000038       0x39 build/objs/stm32f4xx_hal_tim.o
 .comment       0x0000000000000038       0x39 build/objs/stm32f4xx_hal_dma_ex.o
 .comment       0x0000000000000038       0x39 build/objs/stm32f4xx_hal_sd.o
 .comment       0x0000000000000038       0x39 build/objs/stm32f4xx_hal_sai_ex.o
 .comment       0x0000000000000038       0x39 build/objs/stm32f4xx_hal_rcc.o
 .comment       0x0000000000000038       0x39 build/objs/stm32f4xx_hal_wwdg.o
 .comment       0x0000000000000038       0x39 build/objs/stm32f4xx_hal_dac_ex.o
 .comment       0x0000000000000038       0x39 build/objs/stm32f4xx_hal_rtc_ex.o
 .comment       0x0000000000000038       0x39 build/objs/stm32f4xx_hal_pwr_ex.o
 .comment       0x0000000000000038       0x39 build/objs/stm32f4xx_hal_dcmi.o
 .comment       0x0000000000000038       0x39 build/objs/stm32f4xx_hal_sdram.o
 .comment       0x0000000000000038       0x39 build/objs/stm32f4xx_hal_flash.o
 .comment       0x0000000000000038       0x39 build/objs/stm32f4xx_hal_crc.o
 .comment       0x0000000000000038       0x39 build/objs/stm32f4xx_hal_usart.o
 .comment       0x0000000000000038       0x39 build/objs/stm32f4_discovery.o
 .comment       0x0000000000000038       0x39 build/objs/system_stm32f4xx.o
 .comment       0x0000000000000038       0x39 build/objs/usbd_core.o
 .comment       0x0000000000000038       0x39 build/objs/usbd_ctlreq.o
 .comment       0x0000000000000038       0x39 build/objs/usbd_ioreq.o
 .comment       0x0000000000000038       0x39 build/objs/usbd_cdc_if_template.o
 .comment       0x0000000000000038       0x39 build/objs/usbd_cdc.o
 .comment       0x0000000000000038       0x20 /usr/lib/gcc/arm-none-eabi/4.9.3/../../../arm-none-eabi/lib/armv7e-m/fpu/libg.a(lib_a-errno.o)
                                         0x21 (size before relaxing)
 .comment       0x0000000000000058       0x21 /usr/lib/gcc/arm-none-eabi/4.9.3/../../../arm-none-eabi/lib/armv7e-m/fpu/libg.a(lib_a-impure.o)
 .comment       0x0000000000000058       0x21 /usr/lib/gcc/arm-none-eabi/4.9.3/../../../arm-none-eabi/lib/armv7e-m/fpu/libg.a(lib_a-malloc.o)
 .comment       0x0000000000000058       0x21 /usr/lib/gcc/arm-none-eabi/4.9.3/../../../arm-none-eabi/lib/armv7e-m/fpu/libg.a(lib_a-mallocr.o)
 .comment       0x0000000000000058       0x21 /usr/lib/gcc/arm-none-eabi/4.9.3/../../../arm-none-eabi/lib/armv7e-m/fpu/libg.a(lib_a-mlock.o)
 .comment       0x0000000000000058       0x21 /usr/lib/gcc/arm-none-eabi/4.9.3/../../../arm-none-eabi/lib/armv7e-m/fpu/libg.a(lib_a-sbrkr.o)
 .comment       0x0000000000000058       0x21 /usr/lib/gcc/arm-none-eabi/4.9.3/../../../arm-none-eabi/lib/armv7e-m/fpu/libg.a(lib_a-freer.o)
 .comment       0x0000000000000058       0x21 /usr/lib/gcc/arm-none-eabi/4.9.3/../../../arm-none-eabi/lib/armv7e-m/fpu/libg.a(lib_a-reent.o)

.debug_frame    0x0000000000000000     0x65d8
 .debug_frame   0x0000000000000000       0xbc build/objs/usbd_cdc_if.o
 .debug_frame   0x00000000000000bc      0x404 build/objs/usbd_conf.o
 .debug_frame   0x00000000000004c0      0x2fc build/objs/syscalls.o
 .debug_frame   0x00000000000007bc       0x2c build/objs/stm32f4xx_hal_msp.o
 .debug_frame   0x00000000000007e8       0x38 build/objs/gpio.o
 .debug_frame   0x0000000000000820       0x54 build/objs/main.o
 .debug_frame   0x0000000000000874       0x48 build/objs/stm32f4xx_it.o
 .debug_frame   0x00000000000008bc       0x2c build/objs/usb_device.o
 .debug_frame   0x00000000000008e8      0x114 build/objs/usbd_desc.o
 .debug_frame   0x00000000000009fc      0x34c build/objs/pcd8544.o
 .debug_frame   0x0000000000000d48      0x508 build/objs/stm32f4xx_hal_pcd.o
 .debug_frame   0x0000000000001250       0xb4 build/objs/stm32f4xx_hal_timebase_tim_template.o
 .debug_frame   0x0000000000001304      0x718 build/objs/stm32f4xx_ll_usb.o
 .debug_frame   0x0000000000001a1c      0x2c0 build/objs/stm32f4xx_hal.o
 .debug_frame   0x0000000000001cdc      0x250 build/objs/stm32f4xx_hal_flash_ex.o
 .debug_frame   0x0000000000001f2c      0x14c build/objs/stm32f4xx_hal_gpio.o
 .debug_frame   0x0000000000002078       0x60 build/objs/stm32f4xx_hal_pcd_ex.o
 .debug_frame   0x00000000000020d8      0x79c build/objs/stm32f4xx_hal_spi.o
 .debug_frame   0x0000000000002874      0xaec build/objs/stm32f4xx_hal_i2c.o
 .debug_frame   0x0000000000003360       0x7c build/objs/stm32f4xx_hal_rcc_ex.o
 .debug_frame   0x00000000000033dc      0x450 build/objs/stm32f4xx_hal_cortex.o
 .debug_frame   0x000000000000382c      0x580 build/objs/stm32f4xx_hal_tim_ex.o
 .debug_frame   0x0000000000003dac      0x1b4 build/objs/stm32f4xx_hal_dma.o
 .debug_frame   0x0000000000003f60      0x274 build/objs/stm32f4xx_hal_pwr.o
 .debug_frame   0x00000000000041d4      0xfd0 build/objs/stm32f4xx_hal_tim.o
 .debug_frame   0x00000000000051a4       0xa8 build/objs/stm32f4xx_hal_dma_ex.o
 .debug_frame   0x000000000000524c      0x200 build/objs/stm32f4xx_hal_rcc.o
 .debug_frame   0x000000000000544c       0xec build/objs/stm32f4xx_hal_pwr_ex.o
 .debug_frame   0x0000000000005538      0x26c build/objs/stm32f4xx_hal_flash.o
 .debug_frame   0x00000000000057a4      0x358 build/objs/stm32f4_discovery.o
 .debug_frame   0x0000000000005afc       0x58 build/objs/system_stm32f4xx.o
 .debug_frame   0x0000000000005b54      0x300 build/objs/usbd_core.o
 .debug_frame   0x0000000000005e54      0x210 build/objs/usbd_ctlreq.o
 .debug_frame   0x0000000000006064      0x10c build/objs/usbd_ioreq.o
 .debug_frame   0x0000000000006170       0xa0 build/objs/usbd_cdc_if_template.o
 .debug_frame   0x0000000000006210      0x24c build/objs/usbd_cdc.o
 .debug_frame   0x000000000000645c       0x20 /usr/lib/gcc/arm-none-eabi/4.9.3/../../../arm-none-eabi/lib/armv7e-m/fpu/libg.a(lib_a-errno.o)
 .debug_frame   0x000000000000647c       0x30 /usr/lib/gcc/arm-none-eabi/4.9.3/../../../arm-none-eabi/lib/armv7e-m/fpu/libg.a(lib_a-malloc.o)
 .debug_frame   0x00000000000064ac       0x38 /usr/lib/gcc/arm-none-eabi/4.9.3/../../../arm-none-eabi/lib/armv7e-m/fpu/libg.a(lib_a-mallocr.o)
 .debug_frame   0x00000000000064e4       0x30 /usr/lib/gcc/arm-none-eabi/4.9.3/../../../arm-none-eabi/lib/armv7e-m/fpu/libg.a(lib_a-mlock.o)
 .debug_frame   0x0000000000006514       0x2c /usr/lib/gcc/arm-none-eabi/4.9.3/../../../arm-none-eabi/lib/armv7e-m/fpu/libg.a(lib_a-sbrkr.o)
 .debug_frame   0x0000000000006540       0x50 /usr/lib/gcc/arm-none-eabi/4.9.3/../../../arm-none-eabi/lib/armv7e-m/fpu/libg.a(lib_a-freer.o)
 .debug_frame   0x0000000000006590       0x48 /usr/lib/gcc/arm-none-eabi/4.9.3/../../../arm-none-eabi/lib/armv7e-m/fpu/libg.a(lib_a-reent.o)

.debug_ranges   0x0000000000000000      0x100
 .debug_ranges  0x0000000000000000       0x20 build/objs/startup_stm32f407xx.o
 .debug_ranges  0x0000000000000020       0x10 /usr/lib/gcc/arm-none-eabi/4.9.3/../../../arm-none-eabi/lib/armv7e-m/fpu/libg.a(lib_a-errno.o)
 .debug_ranges  0x0000000000000030       0x18 /usr/lib/gcc/arm-none-eabi/4.9.3/../../../arm-none-eabi/lib/armv7e-m/fpu/libg.a(lib_a-malloc.o)
 .debug_ranges  0x0000000000000048       0x48 /usr/lib/gcc/arm-none-eabi/4.9.3/../../../arm-none-eabi/lib/armv7e-m/fpu/libg.a(lib_a-mallocr.o)
 .debug_ranges  0x0000000000000090       0x18 /usr/lib/gcc/arm-none-eabi/4.9.3/../../../arm-none-eabi/lib/armv7e-m/fpu/libg.a(lib_a-mlock.o)
 .debug_ranges  0x00000000000000a8       0x10 /usr/lib/gcc/arm-none-eabi/4.9.3/../../../arm-none-eabi/lib/armv7e-m/fpu/libg.a(lib_a-sbrkr.o)
 .debug_ranges  0x00000000000000b8       0x18 /usr/lib/gcc/arm-none-eabi/4.9.3/../../../arm-none-eabi/lib/armv7e-m/fpu/libg.a(lib_a-freer.o)
 .debug_ranges  0x00000000000000d0       0x30 /usr/lib/gcc/arm-none-eabi/4.9.3/../../../arm-none-eabi/lib/armv7e-m/fpu/libg.a(lib_a-reent.o)

.debug_loc      0x0000000000000000     0x13dd
 .debug_loc     0x0000000000000000       0x58 /usr/lib/gcc/arm-none-eabi/4.9.3/../../../arm-none-eabi/lib/armv7e-m/fpu/libg.a(lib_a-malloc.o)
 .debug_loc     0x0000000000000058      0xd0c /usr/lib/gcc/arm-none-eabi/4.9.3/../../../arm-none-eabi/lib/armv7e-m/fpu/libg.a(lib_a-mallocr.o)
 .debug_loc     0x0000000000000d64       0x4d /usr/lib/gcc/arm-none-eabi/4.9.3/../../../arm-none-eabi/lib/armv7e-m/fpu/libg.a(lib_a-sbrkr.o)
 .debug_loc     0x0000000000000db1      0x4f1 /usr/lib/gcc/arm-none-eabi/4.9.3/../../../arm-none-eabi/lib/armv7e-m/fpu/libg.a(lib_a-freer.o)
 .debug_loc     0x00000000000012a2      0x13b /usr/lib/gcc/arm-none-eabi/4.9.3/../../../arm-none-eabi/lib/armv7e-m/fpu/libg.a(lib_a-reent.o)

Cross Reference Table

Symbol                                            File
ACCELERO_IO_ITConfig                              build/objs/stm32f4_discovery.o
ACCELERO_IO_Init                                  build/objs/stm32f4_discovery.o
ACCELERO_IO_Read                                  build/objs/stm32f4_discovery.o
ACCELERO_IO_Write                                 build/objs/stm32f4_discovery.o
ADC_IRQHandler                                    build/objs/startup_stm32f407xx.o
AHBPrescTable                                     build/objs/system_stm32f4xx.o
APBAHBPrescTable                                  build/objs/stm32f4xx_hal_rcc.o
AUDIO_IO_DeInit                                   build/objs/stm32f4_discovery.o
AUDIO_IO_Init                                     build/objs/stm32f4_discovery.o
AUDIO_IO_Read                                     build/objs/stm32f4_discovery.o
AUDIO_IO_Write                                    build/objs/stm32f4_discovery.o
BSP_GetVersion                                    build/objs/stm32f4_discovery.o
BSP_LED_Init                                      build/objs/stm32f4_discovery.o
                                                  build/objs/main.o
BSP_LED_Off                                       build/objs/stm32f4_discovery.o
                                                  build/objs/main.o
BSP_LED_On                                        build/objs/stm32f4_discovery.o
                                                  build/objs/main.o
BSP_LED_Toggle                                    build/objs/stm32f4_discovery.o
                                                  build/objs/main.o
BSP_PB_GetState                                   build/objs/stm32f4_discovery.o
BSP_PB_Init                                       build/objs/stm32f4_discovery.o
BUTTON_IRQn                                       build/objs/stm32f4_discovery.o
BUTTON_PIN                                        build/objs/stm32f4_discovery.o
BUTTON_PORT                                       build/objs/stm32f4_discovery.o
BusFault_Handler                                  build/objs/startup_stm32f407xx.o
CAN1_RX0_IRQHandler                               build/objs/startup_stm32f407xx.o
CAN1_RX1_IRQHandler                               build/objs/startup_stm32f407xx.o
CAN1_SCE_IRQHandler                               build/objs/startup_stm32f407xx.o
CAN1_TX_IRQHandler                                build/objs/startup_stm32f407xx.o
CAN2_RX0_IRQHandler                               build/objs/startup_stm32f407xx.o
CAN2_RX1_IRQHandler                               build/objs/startup_stm32f407xx.o
CAN2_SCE_IRQHandler                               build/objs/startup_stm32f407xx.o
CAN2_TX_IRQHandler                                build/objs/startup_stm32f407xx.o
CDC_Transmit_FS                                   build/objs/usbd_cdc_if.o
DCMI_IRQHandler                                   build/objs/startup_stm32f407xx.o
DMA1_Stream0_IRQHandler                           build/objs/startup_stm32f407xx.o
DMA1_Stream1_IRQHandler                           build/objs/startup_stm32f407xx.o
DMA1_Stream2_IRQHandler                           build/objs/startup_stm32f407xx.o
DMA1_Stream3_IRQHandler                           build/objs/startup_stm32f407xx.o
DMA1_Stream4_IRQHandler                           build/objs/startup_stm32f407xx.o
DMA1_Stream5_IRQHandler                           build/objs/startup_stm32f407xx.o
DMA1_Stream6_IRQHandler                           build/objs/startup_stm32f407xx.o
DMA1_Stream7_IRQHandler                           build/objs/startup_stm32f407xx.o
DMA2_Stream0_IRQHandler                           build/objs/startup_stm32f407xx.o
DMA2_Stream1_IRQHandler                           build/objs/startup_stm32f407xx.o
DMA2_Stream2_IRQHandler                           build/objs/startup_stm32f407xx.o
DMA2_Stream3_IRQHandler                           build/objs/startup_stm32f407xx.o
DMA2_Stream4_IRQHandler                           build/objs/startup_stm32f407xx.o
DMA2_Stream5_IRQHandler                           build/objs/startup_stm32f407xx.o
DMA2_Stream6_IRQHandler                           build/objs/startup_stm32f407xx.o
DMA2_Stream7_IRQHandler                           build/objs/startup_stm32f407xx.o
DebugMon_Handler                                  build/objs/startup_stm32f407xx.o
Default_Handler                                   build/objs/startup_stm32f407xx.o
ETH_IRQHandler                                    build/objs/startup_stm32f407xx.o
ETH_WKUP_IRQHandler                               build/objs/startup_stm32f407xx.o
EXTI0_IRQHandler                                  build/objs/startup_stm32f407xx.o
EXTI15_10_IRQHandler                              build/objs/startup_stm32f407xx.o
EXTI1_IRQHandler                                  build/objs/startup_stm32f407xx.o
EXTI2_IRQHandler                                  build/objs/startup_stm32f407xx.o
EXTI3_IRQHandler                                  build/objs/startup_stm32f407xx.o
EXTI4_IRQHandler                                  build/objs/startup_stm32f407xx.o
EXTI9_5_IRQHandler                                build/objs/startup_stm32f407xx.o
FLASH_Erase_Sector                                build/objs/stm32f4xx_hal_flash_ex.o
                                                  build/objs/stm32f4xx_hal_flash.o
FLASH_FlushCaches                                 build/objs/stm32f4xx_hal_flash_ex.o
                                                  build/objs/stm32f4xx_hal_flash.o
FLASH_IRQHandler                                  build/objs/startup_stm32f407xx.o
FLASH_WaitForLastOperation                        build/objs/stm32f4xx_hal_flash.o
                                                  build/objs/stm32f4xx_hal_flash_ex.o
FPU_IRQHandler                                    build/objs/startup_stm32f407xx.o
FSMC_IRQHandler                                   build/objs/startup_stm32f407xx.o
FS_Desc                                           build/objs/usbd_desc.o
                                                  build/objs/usb_device.o
GPIO_PIN                                          build/objs/stm32f4_discovery.o
GPIO_PORT                                         build/objs/stm32f4_discovery.o
HAL_DBGMCU_DisableDBGSleepMode                    build/objs/stm32f4xx_hal.o
HAL_DBGMCU_DisableDBGStandbyMode                  build/objs/stm32f4xx_hal.o
HAL_DBGMCU_DisableDBGStopMode                     build/objs/stm32f4xx_hal.o
HAL_DBGMCU_EnableDBGSleepMode                     build/objs/stm32f4xx_hal.o
HAL_DBGMCU_EnableDBGStandbyMode                   build/objs/stm32f4xx_hal.o
HAL_DBGMCU_EnableDBGStopMode                      build/objs/stm32f4xx_hal.o
HAL_DMAEx_ChangeMemory                            build/objs/stm32f4xx_hal_dma_ex.o
HAL_DMAEx_MultiBufferStart                        build/objs/stm32f4xx_hal_dma_ex.o
HAL_DMAEx_MultiBufferStart_IT                     build/objs/stm32f4xx_hal_dma_ex.o
HAL_DMA_Abort                                     build/objs/stm32f4xx_hal_dma.o
                                                  build/objs/stm32f4xx_hal_tim.o
                                                  build/objs/stm32f4xx_hal_spi.o
HAL_DMA_DeInit                                    build/objs/stm32f4xx_hal_dma.o
HAL_DMA_GetError                                  build/objs/stm32f4xx_hal_dma.o
HAL_DMA_GetState                                  build/objs/stm32f4xx_hal_dma.o
HAL_DMA_IRQHandler                                build/objs/stm32f4xx_hal_dma.o
HAL_DMA_Init                                      build/objs/stm32f4xx_hal_dma.o
HAL_DMA_PollForTransfer                           build/objs/stm32f4xx_hal_dma.o
HAL_DMA_Start                                     build/objs/stm32f4xx_hal_dma.o
HAL_DMA_Start_IT                                  build/objs/stm32f4xx_hal_dma.o
                                                  build/objs/stm32f4xx_hal_tim.o
                                                  build/objs/stm32f4xx_hal_tim_ex.o
                                                  build/objs/stm32f4xx_hal_i2c.o
                                                  build/objs/stm32f4xx_hal_spi.o
HAL_DeInit                                        build/objs/stm32f4xx_hal.o
HAL_Delay                                         build/objs/stm32f4xx_hal.o
                                                  build/objs/stm32f4_discovery.o
                                                  build/objs/stm32f4xx_ll_usb.o
                                                  build/objs/main.o
                                                  build/objs/usbd_conf.o
HAL_DisableCompensationCell                       build/objs/stm32f4xx_hal.o
HAL_EnableCompensationCell                        build/objs/stm32f4xx_hal.o
HAL_FLASHEx_Erase                                 build/objs/stm32f4xx_hal_flash_ex.o
HAL_FLASHEx_Erase_IT                              build/objs/stm32f4xx_hal_flash_ex.o
HAL_FLASHEx_OBGetConfig                           build/objs/stm32f4xx_hal_flash_ex.o
HAL_FLASHEx_OBProgram                             build/objs/stm32f4xx_hal_flash_ex.o
HAL_FLASH_EndOfOperationCallback                  build/objs/stm32f4xx_hal_flash.o
HAL_FLASH_GetError                                build/objs/stm32f4xx_hal_flash.o
HAL_FLASH_IRQHandler                              build/objs/stm32f4xx_hal_flash.o
HAL_FLASH_Lock                                    build/objs/stm32f4xx_hal_flash.o
HAL_FLASH_OB_Launch                               build/objs/stm32f4xx_hal_flash.o
HAL_FLASH_OB_Lock                                 build/objs/stm32f4xx_hal_flash.o
HAL_FLASH_OB_Unlock                               build/objs/stm32f4xx_hal_flash.o
HAL_FLASH_OperationErrorCallback                  build/objs/stm32f4xx_hal_flash.o
HAL_FLASH_Program                                 build/objs/stm32f4xx_hal_flash.o
HAL_FLASH_Program_IT                              build/objs/stm32f4xx_hal_flash.o
HAL_FLASH_Unlock                                  build/objs/stm32f4xx_hal_flash.o
HAL_GPIO_DeInit                                   build/objs/stm32f4xx_hal_gpio.o
                                                  build/objs/usbd_conf.o
HAL_GPIO_EXTI_Callback                            build/objs/stm32f4xx_hal_gpio.o
HAL_GPIO_EXTI_IRQHandler                          build/objs/stm32f4xx_hal_gpio.o
HAL_GPIO_Init                                     build/objs/stm32f4xx_hal_gpio.o
                                                  build/objs/stm32f4_discovery.o
                                                  build/objs/stm32f4xx_hal_rcc.o
                                                  build/objs/pcd8544.o
                                                  build/objs/usbd_conf.o
HAL_GPIO_LockPin                                  build/objs/stm32f4xx_hal_gpio.o
HAL_GPIO_ReadPin                                  build/objs/stm32f4xx_hal_gpio.o
                                                  build/objs/stm32f4_discovery.o
HAL_GPIO_TogglePin                                build/objs/stm32f4xx_hal_gpio.o
                                                  build/objs/stm32f4_discovery.o
HAL_GPIO_WritePin                                 build/objs/stm32f4xx_hal_gpio.o
                                                  build/objs/stm32f4_discovery.o
                                                  build/objs/pcd8544.o
HAL_GetDEVID                                      build/objs/stm32f4xx_hal.o
HAL_GetHalVersion                                 build/objs/stm32f4xx_hal.o
HAL_GetREVID                                      build/objs/stm32f4xx_hal.o
HAL_GetTick                                       build/objs/stm32f4xx_hal.o
                                                  build/objs/stm32f4xx_hal_flash.o
                                                  build/objs/stm32f4xx_hal_pwr_ex.o
                                                  build/objs/stm32f4xx_hal_rcc.o
                                                  build/objs/stm32f4xx_hal_dma.o
                                                  build/objs/stm32f4xx_hal_rcc_ex.o
                                                  build/objs/stm32f4xx_hal_i2c.o
                                                  build/objs/stm32f4xx_hal_spi.o
HAL_I2C_AddrCallback                              build/objs/stm32f4xx_hal_i2c.o
HAL_I2C_DeInit                                    build/objs/stm32f4xx_hal_i2c.o
                                                  build/objs/stm32f4_discovery.o
HAL_I2C_DisableListen_IT                          build/objs/stm32f4xx_hal_i2c.o
HAL_I2C_ER_IRQHandler                             build/objs/stm32f4xx_hal_i2c.o
HAL_I2C_EV_IRQHandler                             build/objs/stm32f4xx_hal_i2c.o
HAL_I2C_EnableListen_IT                           build/objs/stm32f4xx_hal_i2c.o
HAL_I2C_ErrorCallback                             build/objs/stm32f4xx_hal_i2c.o
HAL_I2C_GetError                                  build/objs/stm32f4xx_hal_i2c.o
HAL_I2C_GetMode                                   build/objs/stm32f4xx_hal_i2c.o
HAL_I2C_GetState                                  build/objs/stm32f4xx_hal_i2c.o
                                                  build/objs/stm32f4_discovery.o
HAL_I2C_Init                                      build/objs/stm32f4xx_hal_i2c.o
                                                  build/objs/stm32f4_discovery.o
HAL_I2C_IsDeviceReady                             build/objs/stm32f4xx_hal_i2c.o
HAL_I2C_ListenCpltCallback                        build/objs/stm32f4xx_hal_i2c.o
HAL_I2C_MasterRxCpltCallback                      build/objs/stm32f4xx_hal_i2c.o
HAL_I2C_MasterTxCpltCallback                      build/objs/stm32f4xx_hal_i2c.o
HAL_I2C_Master_Abort_IT                           build/objs/stm32f4xx_hal_i2c.o
HAL_I2C_Master_Receive                            build/objs/stm32f4xx_hal_i2c.o
HAL_I2C_Master_Receive_DMA                        build/objs/stm32f4xx_hal_i2c.o
HAL_I2C_Master_Receive_IT                         build/objs/stm32f4xx_hal_i2c.o
HAL_I2C_Master_Sequential_Receive_IT              build/objs/stm32f4xx_hal_i2c.o
HAL_I2C_Master_Sequential_Transmit_IT             build/objs/stm32f4xx_hal_i2c.o
HAL_I2C_Master_Transmit                           build/objs/stm32f4xx_hal_i2c.o
HAL_I2C_Master_Transmit_DMA                       build/objs/stm32f4xx_hal_i2c.o
HAL_I2C_Master_Transmit_IT                        build/objs/stm32f4xx_hal_i2c.o
HAL_I2C_MemRxCpltCallback                         build/objs/stm32f4xx_hal_i2c.o
HAL_I2C_MemTxCpltCallback                         build/objs/stm32f4xx_hal_i2c.o
HAL_I2C_Mem_Read                                  build/objs/stm32f4xx_hal_i2c.o
                                                  build/objs/stm32f4_discovery.o
HAL_I2C_Mem_Read_DMA                              build/objs/stm32f4xx_hal_i2c.o
HAL_I2C_Mem_Read_IT                               build/objs/stm32f4xx_hal_i2c.o
HAL_I2C_Mem_Write                                 build/objs/stm32f4xx_hal_i2c.o
                                                  build/objs/stm32f4_discovery.o
HAL_I2C_Mem_Write_DMA                             build/objs/stm32f4xx_hal_i2c.o
HAL_I2C_Mem_Write_IT                              build/objs/stm32f4xx_hal_i2c.o
HAL_I2C_MspDeInit                                 build/objs/stm32f4xx_hal_i2c.o
HAL_I2C_MspInit                                   build/objs/stm32f4xx_hal_i2c.o
HAL_I2C_SlaveRxCpltCallback                       build/objs/stm32f4xx_hal_i2c.o
HAL_I2C_SlaveTxCpltCallback                       build/objs/stm32f4xx_hal_i2c.o
HAL_I2C_Slave_Receive                             build/objs/stm32f4xx_hal_i2c.o
HAL_I2C_Slave_Receive_DMA                         build/objs/stm32f4xx_hal_i2c.o
HAL_I2C_Slave_Receive_IT                          build/objs/stm32f4xx_hal_i2c.o
HAL_I2C_Slave_Sequential_Receive_IT               build/objs/stm32f4xx_hal_i2c.o
HAL_I2C_Slave_Sequential_Transmit_IT              build/objs/stm32f4xx_hal_i2c.o
HAL_I2C_Slave_Transmit                            build/objs/stm32f4xx_hal_i2c.o
HAL_I2C_Slave_Transmit_DMA                        build/objs/stm32f4xx_hal_i2c.o
HAL_I2C_Slave_Transmit_IT                         build/objs/stm32f4xx_hal_i2c.o
HAL_IncTick                                       build/objs/stm32f4xx_hal.o
                                                  build/objs/stm32f4xx_hal_timebase_tim_template.o
                                                  build/objs/stm32f4xx_it.o
HAL_Init                                          build/objs/stm32f4xx_hal.o
                                                  build/objs/main.o
HAL_InitTick                                      build/objs/stm32f4xx_hal_timebase_tim_template.o
                                                  build/objs/stm32f4xx_hal_rcc.o
HAL_MPU_ConfigRegion                              build/objs/stm32f4xx_hal_cortex.o
HAL_MspDeInit                                     build/objs/stm32f4xx_hal.o
HAL_MspInit                                       build/objs/stm32f4xx_hal_msp.o
HAL_NVIC_ClearPendingIRQ                          build/objs/stm32f4xx_hal_cortex.o
HAL_NVIC_DisableIRQ                               build/objs/stm32f4xx_hal_cortex.o
                                                  build/objs/usbd_conf.o
HAL_NVIC_EnableIRQ                                build/objs/stm32f4xx_hal_cortex.o
                                                  build/objs/stm32f4_discovery.o
                                                  build/objs/stm32f4xx_hal_timebase_tim_template.o
                                                  build/objs/usbd_conf.o
HAL_NVIC_GetActive                                build/objs/stm32f4xx_hal_cortex.o
HAL_NVIC_GetPendingIRQ                            build/objs/stm32f4xx_hal_cortex.o
HAL_NVIC_GetPriority                              build/objs/stm32f4xx_hal_cortex.o
HAL_NVIC_GetPriorityGrouping                      build/objs/stm32f4xx_hal_cortex.o
HAL_NVIC_SetPendingIRQ                            build/objs/stm32f4xx_hal_cortex.o
HAL_NVIC_SetPriority                              build/objs/stm32f4xx_hal_cortex.o
                                                  build/objs/stm32f4_discovery.o
                                                  build/objs/stm32f4xx_hal.o
                                                  build/objs/stm32f4xx_hal_timebase_tim_template.o
                                                  build/objs/main.o
                                                  build/objs/stm32f4xx_hal_msp.o
                                                  build/objs/usbd_conf.o
HAL_NVIC_SetPriorityGrouping                      build/objs/stm32f4xx_hal_cortex.o
                                                  build/objs/stm32f4xx_hal.o
                                                  build/objs/stm32f4xx_hal_msp.o
HAL_NVIC_SystemReset                              build/objs/stm32f4xx_hal_cortex.o
HAL_PCDEx_SetRxFiFo                               build/objs/stm32f4xx_hal_pcd_ex.o
                                                  build/objs/usbd_conf.o
HAL_PCDEx_SetTxFiFo                               build/objs/stm32f4xx_hal_pcd_ex.o
                                                  build/objs/usbd_conf.o
HAL_PCD_ActivateRemoteWakeup                      build/objs/stm32f4xx_hal_pcd.o
HAL_PCD_ConnectCallback                           build/objs/usbd_conf.o
HAL_PCD_DataInStageCallback                       build/objs/usbd_conf.o
HAL_PCD_DataOutStageCallback                      build/objs/usbd_conf.o
HAL_PCD_DeActivateRemoteWakeup                    build/objs/stm32f4xx_hal_pcd.o
HAL_PCD_DeInit                                    build/objs/stm32f4xx_hal_pcd.o
                                                  build/objs/usbd_conf.o
HAL_PCD_DevConnect                                build/objs/stm32f4xx_hal_pcd.o
HAL_PCD_DevDisconnect                             build/objs/stm32f4xx_hal_pcd.o
HAL_PCD_DisconnectCallback                        build/objs/usbd_conf.o
HAL_PCD_EP_Close                                  build/objs/stm32f4xx_hal_pcd.o
                                                  build/objs/usbd_conf.o
HAL_PCD_EP_ClrStall                               build/objs/stm32f4xx_hal_pcd.o
                                                  build/objs/usbd_conf.o
HAL_PCD_EP_Flush                                  build/objs/stm32f4xx_hal_pcd.o
                                                  build/objs/usbd_conf.o
HAL_PCD_EP_GetRxCount                             build/objs/stm32f4xx_hal_pcd.o
                                                  build/objs/usbd_conf.o
HAL_PCD_EP_Open                                   build/objs/stm32f4xx_hal_pcd.o
                                                  build/objs/usbd_conf.o
HAL_PCD_EP_Receive                                build/objs/stm32f4xx_hal_pcd.o
                                                  build/objs/usbd_conf.o
HAL_PCD_EP_SetStall                               build/objs/stm32f4xx_hal_pcd.o
                                                  build/objs/usbd_conf.o
HAL_PCD_EP_Transmit                               build/objs/stm32f4xx_hal_pcd.o
                                                  build/objs/usbd_conf.o
HAL_PCD_GetState                                  build/objs/stm32f4xx_hal_pcd.o
HAL_PCD_IRQHandler                                build/objs/stm32f4xx_hal_pcd.o
                                                  build/objs/stm32f4xx_it.o
HAL_PCD_ISOINIncompleteCallback                   build/objs/usbd_conf.o
HAL_PCD_ISOOUTIncompleteCallback                  build/objs/usbd_conf.o
HAL_PCD_Init                                      build/objs/stm32f4xx_hal_pcd.o
                                                  build/objs/usbd_conf.o
HAL_PCD_MspDeInit                                 build/objs/usbd_conf.o
HAL_PCD_MspInit                                   build/objs/usbd_conf.o
HAL_PCD_ResetCallback                             build/objs/usbd_conf.o
HAL_PCD_ResumeCallback                            build/objs/usbd_conf.o
HAL_PCD_SOFCallback                               build/objs/usbd_conf.o
HAL_PCD_SetAddress                                build/objs/stm32f4xx_hal_pcd.o
                                                  build/objs/usbd_conf.o
HAL_PCD_SetupStageCallback                        build/objs/usbd_conf.o
HAL_PCD_Start                                     build/objs/stm32f4xx_hal_pcd.o
                                                  build/objs/usbd_conf.o
HAL_PCD_Stop                                      build/objs/stm32f4xx_hal_pcd.o
                                                  build/objs/usbd_conf.o
HAL_PCD_SuspendCallback                           build/objs/usbd_conf.o
HAL_PWREx_ControlVoltageScaling                   build/objs/stm32f4xx_hal_pwr_ex.o
HAL_PWREx_DisableBkUpReg                          build/objs/stm32f4xx_hal_pwr_ex.o
HAL_PWREx_DisableFlashPowerDown                   build/objs/stm32f4xx_hal_pwr_ex.o
HAL_PWREx_EnableBkUpReg                           build/objs/stm32f4xx_hal_pwr_ex.o
HAL_PWREx_EnableFlashPowerDown                    build/objs/stm32f4xx_hal_pwr_ex.o
HAL_PWREx_GetVoltageRange                         build/objs/stm32f4xx_hal_pwr_ex.o
HAL_PWR_ConfigPVD                                 build/objs/stm32f4xx_hal_pwr.o
HAL_PWR_DeInit                                    build/objs/stm32f4xx_hal_pwr.o
HAL_PWR_DisableBkUpAccess                         build/objs/stm32f4xx_hal_pwr.o
HAL_PWR_DisablePVD                                build/objs/stm32f4xx_hal_pwr.o
HAL_PWR_DisableSEVOnPend                          build/objs/stm32f4xx_hal_pwr.o
HAL_PWR_DisableSleepOnExit                        build/objs/stm32f4xx_hal_pwr.o
HAL_PWR_DisableWakeUpPin                          build/objs/stm32f4xx_hal_pwr.o
HAL_PWR_EnableBkUpAccess                          build/objs/stm32f4xx_hal_pwr.o
HAL_PWR_EnablePVD                                 build/objs/stm32f4xx_hal_pwr.o
HAL_PWR_EnableSEVOnPend                           build/objs/stm32f4xx_hal_pwr.o
HAL_PWR_EnableSleepOnExit                         build/objs/stm32f4xx_hal_pwr.o
HAL_PWR_EnableWakeUpPin                           build/objs/stm32f4xx_hal_pwr.o
HAL_PWR_EnterSLEEPMode                            build/objs/stm32f4xx_hal_pwr.o
HAL_PWR_EnterSTANDBYMode                          build/objs/stm32f4xx_hal_pwr.o
HAL_PWR_EnterSTOPMode                             build/objs/stm32f4xx_hal_pwr.o
HAL_PWR_PVDCallback                               build/objs/stm32f4xx_hal_pwr.o
HAL_PWR_PVD_IRQHandler                            build/objs/stm32f4xx_hal_pwr.o
HAL_RCCEx_GetPeriphCLKConfig                      build/objs/stm32f4xx_hal_rcc_ex.o
HAL_RCCEx_PeriphCLKConfig                         build/objs/stm32f4xx_hal_rcc_ex.o
HAL_RCC_CSSCallback                               build/objs/stm32f4xx_hal_rcc.o
HAL_RCC_ClockConfig                               build/objs/stm32f4xx_hal_rcc.o
                                                  build/objs/main.o
HAL_RCC_DeInit                                    build/objs/stm32f4xx_hal_rcc_ex.o
HAL_RCC_DisableCSS                                build/objs/stm32f4xx_hal_rcc.o
HAL_RCC_EnableCSS                                 build/objs/stm32f4xx_hal_rcc.o
HAL_RCC_GetClockConfig                            build/objs/stm32f4xx_hal_rcc.o
                                                  build/objs/stm32f4xx_hal_timebase_tim_template.o
HAL_RCC_GetHCLKFreq                               build/objs/stm32f4xx_hal_rcc.o
                                                  build/objs/stm32f4xx_hal.o
                                                  build/objs/main.o
HAL_RCC_GetOscConfig                              build/objs/stm32f4xx_hal_rcc.o
HAL_RCC_GetPCLK1Freq                              build/objs/stm32f4xx_hal_rcc.o
                                                  build/objs/stm32f4xx_hal_i2c.o
                                                  build/objs/stm32f4xx_hal_timebase_tim_template.o
HAL_RCC_GetPCLK2Freq                              build/objs/stm32f4xx_hal_rcc.o
HAL_RCC_GetSysClockFreq                           build/objs/stm32f4xx_hal_rcc.o
HAL_RCC_MCOConfig                                 build/objs/stm32f4xx_hal_rcc.o
HAL_RCC_NMI_IRQHandler                            build/objs/stm32f4xx_hal_rcc.o
HAL_RCC_OscConfig                                 build/objs/stm32f4xx_hal_rcc.o
                                                  build/objs/main.o
HAL_ResumeTick                                    build/objs/stm32f4xx_hal_timebase_tim_template.o
HAL_SPI_DMAPause                                  build/objs/stm32f4xx_hal_spi.o
HAL_SPI_DMAResume                                 build/objs/stm32f4xx_hal_spi.o
HAL_SPI_DMAStop                                   build/objs/stm32f4xx_hal_spi.o
HAL_SPI_DeInit                                    build/objs/stm32f4xx_hal_spi.o
                                                  build/objs/stm32f4_discovery.o
HAL_SPI_ErrorCallback                             build/objs/stm32f4xx_hal_spi.o
HAL_SPI_GetError                                  build/objs/stm32f4xx_hal_spi.o
HAL_SPI_GetState                                  build/objs/stm32f4xx_hal_spi.o
                                                  build/objs/stm32f4_discovery.o
HAL_SPI_IRQHandler                                build/objs/stm32f4xx_hal_spi.o
HAL_SPI_Init                                      build/objs/stm32f4xx_hal_spi.o
                                                  build/objs/stm32f4_discovery.o
                                                  build/objs/pcd8544.o
HAL_SPI_MspDeInit                                 build/objs/stm32f4xx_hal_spi.o
HAL_SPI_MspInit                                   build/objs/stm32f4xx_hal_spi.o
HAL_SPI_Receive                                   build/objs/stm32f4xx_hal_spi.o
HAL_SPI_Receive_DMA                               build/objs/stm32f4xx_hal_spi.o
HAL_SPI_Receive_IT                                build/objs/stm32f4xx_hal_spi.o
HAL_SPI_RxCpltCallback                            build/objs/stm32f4xx_hal_spi.o
HAL_SPI_RxHalfCpltCallback                        build/objs/stm32f4xx_hal_spi.o
HAL_SPI_Transmit                                  build/objs/stm32f4xx_hal_spi.o
                                                  build/objs/pcd8544.o
HAL_SPI_TransmitReceive                           build/objs/stm32f4xx_hal_spi.o
                                                  build/objs/stm32f4_discovery.o
HAL_SPI_TransmitReceive_DMA                       build/objs/stm32f4xx_hal_spi.o
HAL_SPI_TransmitReceive_IT                        build/objs/stm32f4xx_hal_spi.o
HAL_SPI_Transmit_DMA                              build/objs/stm32f4xx_hal_spi.o
HAL_SPI_Transmit_IT                               build/objs/stm32f4xx_hal_spi.o
HAL_SPI_TxCpltCallback                            build/objs/stm32f4xx_hal_spi.o
HAL_SPI_TxHalfCpltCallback                        build/objs/stm32f4xx_hal_spi.o
HAL_SPI_TxRxCpltCallback                          build/objs/stm32f4xx_hal_spi.o
HAL_SPI_TxRxHalfCpltCallback                      build/objs/stm32f4xx_hal_spi.o
HAL_SYSTICK_CLKSourceConfig                       build/objs/stm32f4xx_hal_cortex.o
                                                  build/objs/main.o
HAL_SYSTICK_Callback                              build/objs/stm32f4xx_hal_cortex.o
HAL_SYSTICK_Config                                build/objs/stm32f4xx_hal_cortex.o
                                                  build/objs/stm32f4xx_hal.o
                                                  build/objs/main.o
HAL_SYSTICK_IRQHandler                            build/objs/stm32f4xx_hal_cortex.o
                                                  build/objs/stm32f4xx_it.o
HAL_SuspendTick                                   build/objs/stm32f4xx_hal_timebase_tim_template.o
HAL_TIMEx_BreakCallback                           build/objs/stm32f4xx_hal_tim_ex.o
                                                  build/objs/stm32f4xx_hal_tim.o
HAL_TIMEx_CommutationCallback                     build/objs/stm32f4xx_hal_tim_ex.o
                                                  build/objs/stm32f4xx_hal_tim.o
HAL_TIMEx_ConfigBreakDeadTime                     build/objs/stm32f4xx_hal_tim_ex.o
HAL_TIMEx_ConfigCommutationEvent                  build/objs/stm32f4xx_hal_tim_ex.o
HAL_TIMEx_ConfigCommutationEvent_DMA              build/objs/stm32f4xx_hal_tim_ex.o
HAL_TIMEx_ConfigCommutationEvent_IT               build/objs/stm32f4xx_hal_tim_ex.o
HAL_TIMEx_HallSensor_DeInit                       build/objs/stm32f4xx_hal_tim_ex.o
HAL_TIMEx_HallSensor_GetState                     build/objs/stm32f4xx_hal_tim_ex.o
HAL_TIMEx_HallSensor_Init                         build/objs/stm32f4xx_hal_tim_ex.o
HAL_TIMEx_HallSensor_MspDeInit                    build/objs/stm32f4xx_hal_tim_ex.o
HAL_TIMEx_HallSensor_MspInit                      build/objs/stm32f4xx_hal_tim_ex.o
HAL_TIMEx_HallSensor_Start                        build/objs/stm32f4xx_hal_tim_ex.o
HAL_TIMEx_HallSensor_Start_DMA                    build/objs/stm32f4xx_hal_tim_ex.o
HAL_TIMEx_HallSensor_Start_IT                     build/objs/stm32f4xx_hal_tim_ex.o
HAL_TIMEx_HallSensor_Stop                         build/objs/stm32f4xx_hal_tim_ex.o
HAL_TIMEx_HallSensor_Stop_DMA                     build/objs/stm32f4xx_hal_tim_ex.o
HAL_TIMEx_HallSensor_Stop_IT                      build/objs/stm32f4xx_hal_tim_ex.o
HAL_TIMEx_MasterConfigSynchronization             build/objs/stm32f4xx_hal_tim_ex.o
HAL_TIMEx_OCN_Start                               build/objs/stm32f4xx_hal_tim_ex.o
HAL_TIMEx_OCN_Start_DMA                           build/objs/stm32f4xx_hal_tim_ex.o
HAL_TIMEx_OCN_Start_IT                            build/objs/stm32f4xx_hal_tim_ex.o
HAL_TIMEx_OCN_Stop                                build/objs/stm32f4xx_hal_tim_ex.o
HAL_TIMEx_OCN_Stop_DMA                            build/objs/stm32f4xx_hal_tim_ex.o
HAL_TIMEx_OCN_Stop_IT                             build/objs/stm32f4xx_hal_tim_ex.o
HAL_TIMEx_OnePulseN_Start                         build/objs/stm32f4xx_hal_tim_ex.o
HAL_TIMEx_OnePulseN_Start_IT                      build/objs/stm32f4xx_hal_tim_ex.o
HAL_TIMEx_OnePulseN_Stop                          build/objs/stm32f4xx_hal_tim_ex.o
HAL_TIMEx_OnePulseN_Stop_IT                       build/objs/stm32f4xx_hal_tim_ex.o
HAL_TIMEx_PWMN_Start                              build/objs/stm32f4xx_hal_tim_ex.o
HAL_TIMEx_PWMN_Start_DMA                          build/objs/stm32f4xx_hal_tim_ex.o
HAL_TIMEx_PWMN_Start_IT                           build/objs/stm32f4xx_hal_tim_ex.o
HAL_TIMEx_PWMN_Stop                               build/objs/stm32f4xx_hal_tim_ex.o
HAL_TIMEx_PWMN_Stop_DMA                           build/objs/stm32f4xx_hal_tim_ex.o
HAL_TIMEx_PWMN_Stop_IT                            build/objs/stm32f4xx_hal_tim_ex.o
HAL_TIMEx_RemapConfig                             build/objs/stm32f4xx_hal_tim_ex.o
HAL_TIM_Base_DeInit                               build/objs/stm32f4xx_hal_tim.o
HAL_TIM_Base_GetState                             build/objs/stm32f4xx_hal_tim.o
HAL_TIM_Base_Init                                 build/objs/stm32f4xx_hal_tim.o
                                                  build/objs/stm32f4xx_hal_timebase_tim_template.o
HAL_TIM_Base_MspDeInit                            build/objs/stm32f4xx_hal_tim.o
HAL_TIM_Base_MspInit                              build/objs/stm32f4xx_hal_tim.o
HAL_TIM_Base_Start                                build/objs/stm32f4xx_hal_tim.o
HAL_TIM_Base_Start_DMA                            build/objs/stm32f4xx_hal_tim.o
HAL_TIM_Base_Start_IT                             build/objs/stm32f4xx_hal_tim.o
                                                  build/objs/stm32f4xx_hal_timebase_tim_template.o
HAL_TIM_Base_Stop                                 build/objs/stm32f4xx_hal_tim.o
HAL_TIM_Base_Stop_DMA                             build/objs/stm32f4xx_hal_tim.o
HAL_TIM_Base_Stop_IT                              build/objs/stm32f4xx_hal_tim.o
HAL_TIM_ConfigClockSource                         build/objs/stm32f4xx_hal_tim.o
HAL_TIM_ConfigOCrefClear                          build/objs/stm32f4xx_hal_tim.o
HAL_TIM_ConfigTI1Input                            build/objs/stm32f4xx_hal_tim.o
HAL_TIM_DMABurst_ReadStart                        build/objs/stm32f4xx_hal_tim.o
HAL_TIM_DMABurst_ReadStop                         build/objs/stm32f4xx_hal_tim.o
HAL_TIM_DMABurst_WriteStart                       build/objs/stm32f4xx_hal_tim.o
HAL_TIM_DMABurst_WriteStop                        build/objs/stm32f4xx_hal_tim.o
HAL_TIM_Encoder_DeInit                            build/objs/stm32f4xx_hal_tim.o
HAL_TIM_Encoder_GetState                          build/objs/stm32f4xx_hal_tim.o
HAL_TIM_Encoder_Init                              build/objs/stm32f4xx_hal_tim.o
HAL_TIM_Encoder_MspDeInit                         build/objs/stm32f4xx_hal_tim.o
HAL_TIM_Encoder_MspInit                           build/objs/stm32f4xx_hal_tim.o
HAL_TIM_Encoder_Start                             build/objs/stm32f4xx_hal_tim.o
HAL_TIM_Encoder_Start_DMA                         build/objs/stm32f4xx_hal_tim.o
HAL_TIM_Encoder_Start_IT                          build/objs/stm32f4xx_hal_tim.o
HAL_TIM_Encoder_Stop                              build/objs/stm32f4xx_hal_tim.o
HAL_TIM_Encoder_Stop_DMA                          build/objs/stm32f4xx_hal_tim.o
HAL_TIM_Encoder_Stop_IT                           build/objs/stm32f4xx_hal_tim.o
HAL_TIM_ErrorCallback                             build/objs/stm32f4xx_hal_tim.o
HAL_TIM_GenerateEvent                             build/objs/stm32f4xx_hal_tim.o
HAL_TIM_IC_CaptureCallback                        build/objs/stm32f4xx_hal_tim.o
HAL_TIM_IC_ConfigChannel                          build/objs/stm32f4xx_hal_tim.o
HAL_TIM_IC_DeInit                                 build/objs/stm32f4xx_hal_tim.o
HAL_TIM_IC_GetState                               build/objs/stm32f4xx_hal_tim.o
HAL_TIM_IC_Init                                   build/objs/stm32f4xx_hal_tim.o
HAL_TIM_IC_MspDeInit                              build/objs/stm32f4xx_hal_tim.o
HAL_TIM_IC_MspInit                                build/objs/stm32f4xx_hal_tim.o
HAL_TIM_IC_Start                                  build/objs/stm32f4xx_hal_tim.o
HAL_TIM_IC_Start_DMA                              build/objs/stm32f4xx_hal_tim.o
HAL_TIM_IC_Start_IT                               build/objs/stm32f4xx_hal_tim.o
HAL_TIM_IC_Stop                                   build/objs/stm32f4xx_hal_tim.o
HAL_TIM_IC_Stop_DMA                               build/objs/stm32f4xx_hal_tim.o
HAL_TIM_IC_Stop_IT                                build/objs/stm32f4xx_hal_tim.o
HAL_TIM_IRQHandler                                build/objs/stm32f4xx_hal_tim.o
                                                  build/objs/stm32f4xx_hal_timebase_tim_template.o
HAL_TIM_OC_ConfigChannel                          build/objs/stm32f4xx_hal_tim.o
HAL_TIM_OC_DeInit                                 build/objs/stm32f4xx_hal_tim.o
HAL_TIM_OC_DelayElapsedCallback                   build/objs/stm32f4xx_hal_tim.o
HAL_TIM_OC_GetState                               build/objs/stm32f4xx_hal_tim.o
HAL_TIM_OC_Init                                   build/objs/stm32f4xx_hal_tim.o
HAL_TIM_OC_MspDeInit                              build/objs/stm32f4xx_hal_tim.o
HAL_TIM_OC_MspInit                                build/objs/stm32f4xx_hal_tim.o
HAL_TIM_OC_Start                                  build/objs/stm32f4xx_hal_tim.o
HAL_TIM_OC_Start_DMA                              build/objs/stm32f4xx_hal_tim.o
HAL_TIM_OC_Start_IT                               build/objs/stm32f4xx_hal_tim.o
HAL_TIM_OC_Stop                                   build/objs/stm32f4xx_hal_tim.o
HAL_TIM_OC_Stop_DMA                               build/objs/stm32f4xx_hal_tim.o
HAL_TIM_OC_Stop_IT                                build/objs/stm32f4xx_hal_tim.o
HAL_TIM_OnePulse_ConfigChannel                    build/objs/stm32f4xx_hal_tim.o
HAL_TIM_OnePulse_DeInit                           build/objs/stm32f4xx_hal_tim.o
HAL_TIM_OnePulse_GetState                         build/objs/stm32f4xx_hal_tim.o
HAL_TIM_OnePulse_Init                             build/objs/stm32f4xx_hal_tim.o
HAL_TIM_OnePulse_MspDeInit                        build/objs/stm32f4xx_hal_tim.o
HAL_TIM_OnePulse_MspInit                          build/objs/stm32f4xx_hal_tim.o
HAL_TIM_OnePulse_Start                            build/objs/stm32f4xx_hal_tim.o
HAL_TIM_OnePulse_Start_IT                         build/objs/stm32f4xx_hal_tim.o
HAL_TIM_OnePulse_Stop                             build/objs/stm32f4xx_hal_tim.o
HAL_TIM_OnePulse_Stop_IT                          build/objs/stm32f4xx_hal_tim.o
HAL_TIM_PWM_ConfigChannel                         build/objs/stm32f4xx_hal_tim.o
                                                  build/objs/pcd8544.o
HAL_TIM_PWM_DeInit                                build/objs/stm32f4xx_hal_tim.o
HAL_TIM_PWM_GetState                              build/objs/stm32f4xx_hal_tim.o
HAL_TIM_PWM_Init                                  build/objs/stm32f4xx_hal_tim.o
                                                  build/objs/pcd8544.o
HAL_TIM_PWM_MspDeInit                             build/objs/stm32f4xx_hal_tim.o
HAL_TIM_PWM_MspInit                               build/objs/stm32f4xx_hal_tim.o
HAL_TIM_PWM_PulseFinishedCallback                 build/objs/stm32f4xx_hal_tim.o
HAL_TIM_PWM_Start                                 build/objs/stm32f4xx_hal_tim.o
                                                  build/objs/pcd8544.o
HAL_TIM_PWM_Start_DMA                             build/objs/stm32f4xx_hal_tim.o
HAL_TIM_PWM_Start_IT                              build/objs/stm32f4xx_hal_tim.o
HAL_TIM_PWM_Stop                                  build/objs/stm32f4xx_hal_tim.o
HAL_TIM_PWM_Stop_DMA                              build/objs/stm32f4xx_hal_tim.o
HAL_TIM_PWM_Stop_IT                               build/objs/stm32f4xx_hal_tim.o
HAL_TIM_PeriodElapsedCallback                     build/objs/stm32f4xx_hal_timebase_tim_template.o
HAL_TIM_ReadCapturedValue                         build/objs/stm32f4xx_hal_tim.o
HAL_TIM_SlaveConfigSynchronization                build/objs/stm32f4xx_hal_tim.o
HAL_TIM_SlaveConfigSynchronization_IT             build/objs/stm32f4xx_hal_tim.o
HAL_TIM_TriggerCallback                           build/objs/stm32f4xx_hal_tim.o
HASH_RNG_IRQHandler                               build/objs/startup_stm32f407xx.o
HardFault_Handler                                 build/objs/startup_stm32f407xx.o
I2C1_ER_IRQHandler                                build/objs/startup_stm32f407xx.o
I2C1_EV_IRQHandler                                build/objs/startup_stm32f407xx.o
I2C2_ER_IRQHandler                                build/objs/startup_stm32f407xx.o
I2C2_EV_IRQHandler                                build/objs/startup_stm32f407xx.o
I2C3_ER_IRQHandler                                build/objs/startup_stm32f407xx.o
I2C3_EV_IRQHandler                                build/objs/startup_stm32f407xx.o
I2cxTimeout                                       build/objs/stm32f4_discovery.o
MX_GPIO_Init                                      build/objs/gpio.o
                                                  build/objs/main.o
MX_USB_DEVICE_Init                                build/objs/usb_device.o
                                                  build/objs/main.o
MemManage_Handler                                 build/objs/startup_stm32f407xx.o
NMI_Handler                                       build/objs/startup_stm32f407xx.o
OTG_FS_IRQHandler                                 build/objs/stm32f4xx_it.o
OTG_FS_WKUP_IRQHandler                            build/objs/startup_stm32f407xx.o
OTG_HS_EP1_IN_IRQHandler                          build/objs/startup_stm32f407xx.o
OTG_HS_EP1_OUT_IRQHandler                         build/objs/startup_stm32f407xx.o
OTG_HS_IRQHandler                                 build/objs/startup_stm32f407xx.o
OTG_HS_WKUP_IRQHandler                            build/objs/startup_stm32f407xx.o
PCD8544_Buffer                                    build/objs/pcd8544.o
PCD8544_Clear                                     build/objs/pcd8544.o
PCD8544_Delay                                     build/objs/pcd8544.o
PCD8544_DrawCircle                                build/objs/pcd8544.o
                                                  build/objs/main.o
PCD8544_DrawFilledCircle                          build/objs/pcd8544.o
PCD8544_DrawFilledRectangle                       build/objs/pcd8544.o
PCD8544_DrawLine                                  build/objs/pcd8544.o
PCD8544_DrawPixel                                 build/objs/pcd8544.o
PCD8544_DrawRectangle                             build/objs/pcd8544.o
                                                  build/objs/main.o
PCD8544_Font3x5                                   build/objs/pcd8544.o
PCD8544_Font5x7                                   build/objs/pcd8544.o
PCD8544_GotoXY                                    build/objs/pcd8544.o
                                                  build/objs/main.o
PCD8544_Home                                      build/objs/pcd8544.o
PCD8544_Init                                      build/objs/pcd8544.o
                                                  build/objs/main.o
PCD8544_InitIO                                    build/objs/pcd8544.o
PCD8544_Invert                                    build/objs/pcd8544.o
PCD8544_Pin                                       build/objs/pcd8544.o
PCD8544_Putc                                      build/objs/pcd8544.o
PCD8544_Puts                                      build/objs/pcd8544.o
                                                  build/objs/main.o
PCD8544_Refresh                                   build/objs/pcd8544.o
                                                  build/objs/main.o
PCD8544_SetBacklight                              build/objs/pcd8544.o
PCD8544_SetContrast                               build/objs/pcd8544.o
PCD8544_UpdateArea                                build/objs/pcd8544.o
PCD8544_UpdateXmax                                build/objs/pcd8544.o
PCD8544_UpdateXmin                                build/objs/pcd8544.o
PCD8544_UpdateYmax                                build/objs/pcd8544.o
PCD8544_UpdateYmin                                build/objs/pcd8544.o
PCD8544_Write                                     build/objs/pcd8544.o
PCD8544_send                                      build/objs/pcd8544.o
PCD8544_x                                         build/objs/pcd8544.o
PCD8544_y                                         build/objs/pcd8544.o
PVD_IRQHandler                                    build/objs/startup_stm32f407xx.o
PendSV_Handler                                    build/objs/startup_stm32f407xx.o
RCC_IRQHandler                                    build/objs/startup_stm32f407xx.o
RTC_Alarm_IRQHandler                              build/objs/startup_stm32f407xx.o
RTC_WKUP_IRQHandler                               build/objs/startup_stm32f407xx.o
Reset_Handler                                     build/objs/startup_stm32f407xx.o
SDIO_IRQHandler                                   build/objs/startup_stm32f407xx.o
SPI1_IRQHandler                                   build/objs/startup_stm32f407xx.o
SPI2_IRQHandler                                   build/objs/startup_stm32f407xx.o
SPI3_IRQHandler                                   build/objs/startup_stm32f407xx.o
SVC_Handler                                       build/objs/startup_stm32f407xx.o
SpixTimeout                                       build/objs/stm32f4_discovery.o
SysTick_Handler                                   build/objs/stm32f4xx_it.o
SystemClock_Config                                build/objs/main.o
SystemCoreClock                                   build/objs/system_stm32f4xx.o
                                                  build/objs/stm32f4xx_hal_rcc.o
SystemCoreClockUpdate                             build/objs/system_stm32f4xx.o
SystemInit                                        build/objs/system_stm32f4xx.o
                                                  build/objs/startup_stm32f407xx.o
TAMP_STAMP_IRQHandler                             build/objs/startup_stm32f407xx.o
TIM1_BRK_TIM9_IRQHandler                          build/objs/startup_stm32f407xx.o
TIM1_CC_IRQHandler                                build/objs/startup_stm32f407xx.o
TIM1_TRG_COM_TIM11_IRQHandler                     build/objs/startup_stm32f407xx.o
TIM1_UP_TIM10_IRQHandler                          build/objs/startup_stm32f407xx.o
TIM2_IRQHandler                                   build/objs/startup_stm32f407xx.o
TIM3_IRQHandler                                   build/objs/startup_stm32f407xx.o
TIM4_IRQHandler                                   build/objs/startup_stm32f407xx.o
TIM5_IRQHandler                                   build/objs/startup_stm32f407xx.o
TIM6_DAC_IRQHandler                               build/objs/stm32f4xx_hal_timebase_tim_template.o
TIM7_IRQHandler                                   build/objs/startup_stm32f407xx.o
TIM8_BRK_TIM12_IRQHandler                         build/objs/startup_stm32f407xx.o
TIM8_CC_IRQHandler                                build/objs/startup_stm32f407xx.o
TIM8_TRG_COM_TIM14_IRQHandler                     build/objs/startup_stm32f407xx.o
TIM8_UP_TIM13_IRQHandler                          build/objs/startup_stm32f407xx.o
TIMEx_DMACommutationCplt                          build/objs/stm32f4xx_hal_tim_ex.o
                                                  build/objs/stm32f4xx_hal_tim.o
TIM_Base_SetConfig                                build/objs/stm32f4xx_hal_tim.o
                                                  build/objs/stm32f4xx_hal_tim_ex.o
TIM_CCxChannelCmd                                 build/objs/stm32f4xx_hal_tim.o
                                                  build/objs/stm32f4xx_hal_tim_ex.o
TIM_DMACaptureCplt                                build/objs/stm32f4xx_hal_tim.o
                                                  build/objs/stm32f4xx_hal_tim_ex.o
TIM_DMADelayPulseCplt                             build/objs/stm32f4xx_hal_tim.o
                                                  build/objs/stm32f4xx_hal_tim_ex.o
TIM_DMAError                                      build/objs/stm32f4xx_hal_tim.o
                                                  build/objs/stm32f4xx_hal_tim_ex.o
TIM_OC2_SetConfig                                 build/objs/stm32f4xx_hal_tim.o
                                                  build/objs/stm32f4xx_hal_tim_ex.o
TIM_TI1_SetConfig                                 build/objs/stm32f4xx_hal_tim.o
                                                  build/objs/stm32f4xx_hal_tim_ex.o
TimHandle                                         build/objs/stm32f4xx_hal_timebase_tim_template.o
UART4_IRQHandler                                  build/objs/startup_stm32f407xx.o
UART5_IRQHandler                                  build/objs/startup_stm32f407xx.o
USART1_IRQHandler                                 build/objs/startup_stm32f407xx.o
USART2_IRQHandler                                 build/objs/startup_stm32f407xx.o
USART3_IRQHandler                                 build/objs/startup_stm32f407xx.o
USART6_IRQHandler                                 build/objs/startup_stm32f407xx.o
USBD_CDC                                          build/objs/usbd_cdc.o
                                                  build/objs/usb_device.o
USBD_CDC_CfgFSDesc                                build/objs/usbd_cdc.o
USBD_CDC_CfgHSDesc                                build/objs/usbd_cdc.o
USBD_CDC_GetDeviceQualifierDescriptor             build/objs/usbd_cdc.o
USBD_CDC_OtherSpeedCfgDesc                        build/objs/usbd_cdc.o
USBD_CDC_ReceivePacket                            build/objs/usbd_cdc.o
                                                  build/objs/usbd_cdc_if.o
USBD_CDC_RegisterInterface                        build/objs/usbd_cdc.o
                                                  build/objs/usb_device.o
USBD_CDC_SetRxBuffer                              build/objs/usbd_cdc.o
                                                  build/objs/usbd_cdc_if.o
USBD_CDC_SetTxBuffer                              build/objs/usbd_cdc.o
                                                  build/objs/usbd_cdc_if.o
USBD_CDC_Template_fops                            build/objs/usbd_cdc_if_template.o
USBD_CDC_TransmitPacket                           build/objs/usbd_cdc.o
                                                  build/objs/usbd_cdc_if.o
USBD_ClrClassConfig                               build/objs/usbd_core.o
                                                  build/objs/usbd_ctlreq.o
USBD_CtlContinueRx                                build/objs/usbd_ioreq.o
                                                  build/objs/usbd_core.o
USBD_CtlContinueSendData                          build/objs/usbd_ioreq.o
                                                  build/objs/usbd_core.o
USBD_CtlError                                     build/objs/usbd_ctlreq.o
USBD_CtlPrepareRx                                 build/objs/usbd_ioreq.o
                                                  build/objs/usbd_cdc.o
USBD_CtlReceiveStatus                             build/objs/usbd_ioreq.o
                                                  build/objs/usbd_core.o
USBD_CtlSendData                                  build/objs/usbd_ioreq.o
                                                  build/objs/usbd_cdc.o
                                                  build/objs/usbd_ctlreq.o
USBD_CtlSendStatus                                build/objs/usbd_ioreq.o
                                                  build/objs/usbd_ctlreq.o
                                                  build/objs/usbd_core.o
USBD_DeInit                                       build/objs/usbd_core.o
USBD_FS_ConfigStrDescriptor                       build/objs/usbd_desc.o
USBD_FS_DeviceDesc                                build/objs/usbd_desc.o
USBD_FS_DeviceDescriptor                          build/objs/usbd_desc.o
USBD_FS_InterfaceStrDescriptor                    build/objs/usbd_desc.o
USBD_FS_LangIDStrDescriptor                       build/objs/usbd_desc.o
USBD_FS_ManufacturerStrDescriptor                 build/objs/usbd_desc.o
USBD_FS_ProductStrDescriptor                      build/objs/usbd_desc.o
USBD_FS_SerialStrDescriptor                       build/objs/usbd_desc.o
USBD_GetRxCount                                   build/objs/usbd_ioreq.o
USBD_GetString                                    build/objs/usbd_ctlreq.o
                                                  build/objs/usbd_desc.o
USBD_Init                                         build/objs/usbd_core.o
                                                  build/objs/usb_device.o
USBD_Interface_fops_FS                            build/objs/usbd_cdc_if.o
                                                  build/objs/usb_device.o
USBD_LL_ClearStallEP                              build/objs/usbd_conf.o
                                                  build/objs/usbd_ctlreq.o
USBD_LL_CloseEP                                   build/objs/usbd_conf.o
                                                  build/objs/usbd_cdc.o
USBD_LL_DataInStage                               build/objs/usbd_core.o
                                                  build/objs/usbd_conf.o
USBD_LL_DataOutStage                              build/objs/usbd_core.o
                                                  build/objs/usbd_conf.o
USBD_LL_DeInit                                    build/objs/usbd_conf.o
                                                  build/objs/usbd_core.o
USBD_LL_Delay                                     build/objs/usbd_conf.o
USBD_LL_DevConnected                              build/objs/usbd_core.o
                                                  build/objs/usbd_conf.o
USBD_LL_DevDisconnected                           build/objs/usbd_core.o
                                                  build/objs/usbd_conf.o
USBD_LL_FlushEP                                   build/objs/usbd_conf.o
USBD_LL_GetRxDataSize                             build/objs/usbd_conf.o
                                                  build/objs/usbd_cdc.o
                                                  build/objs/usbd_ioreq.o
USBD_LL_Init                                      build/objs/usbd_conf.o
                                                  build/objs/usbd_core.o
USBD_LL_IsStallEP                                 build/objs/usbd_conf.o
                                                  build/objs/usbd_ctlreq.o
USBD_LL_IsoINIncomplete                           build/objs/usbd_core.o
                                                  build/objs/usbd_conf.o
USBD_LL_IsoOUTIncomplete                          build/objs/usbd_core.o
                                                  build/objs/usbd_conf.o
USBD_LL_OpenEP                                    build/objs/usbd_conf.o
                                                  build/objs/usbd_cdc.o
                                                  build/objs/usbd_core.o
USBD_LL_PrepareReceive                            build/objs/usbd_conf.o
                                                  build/objs/usbd_cdc.o
                                                  build/objs/usbd_ioreq.o
                                                  build/objs/usbd_core.o
USBD_LL_Reset                                     build/objs/usbd_core.o
                                                  build/objs/usbd_conf.o
USBD_LL_Resume                                    build/objs/usbd_core.o
                                                  build/objs/usbd_conf.o
USBD_LL_SOF                                       build/objs/usbd_core.o
                                                  build/objs/usbd_conf.o
USBD_LL_SetSpeed                                  build/objs/usbd_core.o
                                                  build/objs/usbd_conf.o
USBD_LL_SetUSBAddress                             build/objs/usbd_conf.o
                                                  build/objs/usbd_ctlreq.o
USBD_LL_SetupStage                                build/objs/usbd_core.o
                                                  build/objs/usbd_conf.o
USBD_LL_StallEP                                   build/objs/usbd_conf.o
                                                  build/objs/usbd_ctlreq.o
                                                  build/objs/usbd_core.o
USBD_LL_Start                                     build/objs/usbd_conf.o
                                                  build/objs/usbd_core.o
USBD_LL_Stop                                      build/objs/usbd_conf.o
                                                  build/objs/usbd_core.o
USBD_LL_Suspend                                   build/objs/usbd_core.o
                                                  build/objs/usbd_conf.o
USBD_LL_Transmit                                  build/objs/usbd_conf.o
                                                  build/objs/usbd_cdc.o
                                                  build/objs/usbd_ioreq.o
USBD_LangIDDesc                                   build/objs/usbd_desc.o
USBD_ParseSetupRequest                            build/objs/usbd_ctlreq.o
                                                  build/objs/usbd_core.o
USBD_RegisterClass                                build/objs/usbd_core.o
                                                  build/objs/usb_device.o
USBD_RunTestMode                                  build/objs/usbd_core.o
USBD_SetClassConfig                               build/objs/usbd_core.o
                                                  build/objs/usbd_ctlreq.o
USBD_Start                                        build/objs/usbd_core.o
                                                  build/objs/usb_device.o
USBD_StdDevReq                                    build/objs/usbd_ctlreq.o
                                                  build/objs/usbd_core.o
USBD_StdEPReq                                     build/objs/usbd_ctlreq.o
                                                  build/objs/usbd_core.o
USBD_StdItfReq                                    build/objs/usbd_ctlreq.o
                                                  build/objs/usbd_core.o
USBD_Stop                                         build/objs/usbd_core.o
USBD_StrDesc                                      build/objs/usbd_desc.o
USB_ActivateDedicatedEndpoint                     build/objs/stm32f4xx_ll_usb.o
USB_ActivateEndpoint                              build/objs/stm32f4xx_ll_usb.o
                                                  build/objs/stm32f4xx_hal_pcd.o
USB_ActivateSetup                                 build/objs/stm32f4xx_ll_usb.o
                                                  build/objs/stm32f4xx_hal_pcd.o
USB_ClearInterrupts                               build/objs/stm32f4xx_ll_usb.o
USB_CoreInit                                      build/objs/stm32f4xx_ll_usb.o
                                                  build/objs/stm32f4xx_hal_pcd.o
USB_DeactivateDedicatedEndpoint                   build/objs/stm32f4xx_ll_usb.o
USB_DeactivateEndpoint                            build/objs/stm32f4xx_ll_usb.o
                                                  build/objs/stm32f4xx_hal_pcd.o
USB_DevConnect                                    build/objs/stm32f4xx_ll_usb.o
                                                  build/objs/stm32f4xx_hal_pcd.o
USB_DevDisconnect                                 build/objs/stm32f4xx_ll_usb.o
                                                  build/objs/stm32f4xx_hal_pcd.o
USB_DevInit                                       build/objs/stm32f4xx_ll_usb.o
                                                  build/objs/stm32f4xx_hal_pcd.o
USB_DisableGlobalInt                              build/objs/stm32f4xx_ll_usb.o
                                                  build/objs/stm32f4xx_hal_pcd.o
USB_DoPing                                        build/objs/stm32f4xx_ll_usb.o
USB_DriveVbus                                     build/objs/stm32f4xx_ll_usb.o
USB_EP0StartXfer                                  build/objs/stm32f4xx_ll_usb.o
                                                  build/objs/stm32f4xx_hal_pcd.o
USB_EP0_OutStart                                  build/objs/stm32f4xx_ll_usb.o
                                                  build/objs/stm32f4xx_hal_pcd.o
USB_EPClearStall                                  build/objs/stm32f4xx_ll_usb.o
                                                  build/objs/stm32f4xx_hal_pcd.o
USB_EPSetStall                                    build/objs/stm32f4xx_ll_usb.o
                                                  build/objs/stm32f4xx_hal_pcd.o
USB_EPStartXfer                                   build/objs/stm32f4xx_ll_usb.o
                                                  build/objs/stm32f4xx_hal_pcd.o
USB_EnableGlobalInt                               build/objs/stm32f4xx_ll_usb.o
                                                  build/objs/stm32f4xx_hal_pcd.o
USB_FlushRxFifo                                   build/objs/stm32f4xx_ll_usb.o
                                                  build/objs/stm32f4xx_hal_pcd.o
USB_FlushTxFifo                                   build/objs/stm32f4xx_ll_usb.o
                                                  build/objs/stm32f4xx_hal_pcd.o
USB_GetCurrentFrame                               build/objs/stm32f4xx_ll_usb.o
USB_GetDevSpeed                                   build/objs/stm32f4xx_ll_usb.o
                                                  build/objs/stm32f4xx_hal_pcd.o
USB_GetHostSpeed                                  build/objs/stm32f4xx_ll_usb.o
USB_GetMode                                       build/objs/stm32f4xx_ll_usb.o
                                                  build/objs/stm32f4xx_hal_pcd.o
USB_HC_Halt                                       build/objs/stm32f4xx_ll_usb.o
USB_HC_Init                                       build/objs/stm32f4xx_ll_usb.o
USB_HC_ReadInterrupt                              build/objs/stm32f4xx_ll_usb.o
USB_HC_StartXfer                                  build/objs/stm32f4xx_ll_usb.o
USB_HostInit                                      build/objs/stm32f4xx_ll_usb.o
USB_InitFSLSPClkSel                               build/objs/stm32f4xx_ll_usb.o
USB_ReadDevAllInEpInterrupt                       build/objs/stm32f4xx_ll_usb.o
                                                  build/objs/stm32f4xx_hal_pcd.o
USB_ReadDevAllOutEpInterrupt                      build/objs/stm32f4xx_ll_usb.o
                                                  build/objs/stm32f4xx_hal_pcd.o
USB_ReadDevInEPInterrupt                          build/objs/stm32f4xx_ll_usb.o
                                                  build/objs/stm32f4xx_hal_pcd.o
USB_ReadDevOutEPInterrupt                         build/objs/stm32f4xx_ll_usb.o
                                                  build/objs/stm32f4xx_hal_pcd.o
USB_ReadInterrupts                                build/objs/stm32f4xx_ll_usb.o
                                                  build/objs/stm32f4xx_hal_pcd.o
USB_ReadPacket                                    build/objs/stm32f4xx_ll_usb.o
                                                  build/objs/stm32f4xx_hal_pcd.o
USB_ResetPort                                     build/objs/stm32f4xx_ll_usb.o
USB_SetCurrentMode                                build/objs/stm32f4xx_ll_usb.o
                                                  build/objs/stm32f4xx_hal_pcd.o
USB_SetDevAddress                                 build/objs/stm32f4xx_ll_usb.o
                                                  build/objs/stm32f4xx_hal_pcd.o
USB_SetDevSpeed                                   build/objs/stm32f4xx_ll_usb.o
USB_StopDevice                                    build/objs/stm32f4xx_ll_usb.o
                                                  build/objs/stm32f4xx_hal_pcd.o
USB_StopHost                                      build/objs/stm32f4xx_ll_usb.o
USB_WritePacket                                   build/objs/stm32f4xx_ll_usb.o
                                                  build/objs/stm32f4xx_hal_pcd.o
UsageFault_Handler                                build/objs/startup_stm32f407xx.o
UserRxBufferFS                                    build/objs/usbd_cdc_if.o
UserTxBufferFS                                    build/objs/usbd_cdc_if.o
WWDG_IRQHandler                                   build/objs/startup_stm32f407xx.o
__errno                                           /usr/lib/gcc/arm-none-eabi/4.9.3/../../../arm-none-eabi/lib/armv7e-m/fpu/libg.a(lib_a-errno.o)
                                                  build/objs/syscalls.o
__io_getchar                                      build/objs/syscalls.o
__io_putchar                                      build/objs/syscalls.o
__malloc_av_                                      /usr/lib/gcc/arm-none-eabi/4.9.3/../../../arm-none-eabi/lib/armv7e-m/fpu/libg.a(lib_a-mallocr.o)
                                                  /usr/lib/gcc/arm-none-eabi/4.9.3/../../../arm-none-eabi/lib/armv7e-m/fpu/libg.a(lib_a-freer.o)
__malloc_current_mallinfo                         /usr/lib/gcc/arm-none-eabi/4.9.3/../../../arm-none-eabi/lib/armv7e-m/fpu/libg.a(lib_a-mallocr.o)
                                                  /usr/lib/gcc/arm-none-eabi/4.9.3/../../../arm-none-eabi/lib/armv7e-m/fpu/libg.a(lib_a-freer.o)
__malloc_lock                                     /usr/lib/gcc/arm-none-eabi/4.9.3/../../../arm-none-eabi/lib/armv7e-m/fpu/libg.a(lib_a-mlock.o)
                                                  /usr/lib/gcc/arm-none-eabi/4.9.3/../../../arm-none-eabi/lib/armv7e-m/fpu/libg.a(lib_a-freer.o)
                                                  /usr/lib/gcc/arm-none-eabi/4.9.3/../../../arm-none-eabi/lib/armv7e-m/fpu/libg.a(lib_a-mallocr.o)
__malloc_max_sbrked_mem                           /usr/lib/gcc/arm-none-eabi/4.9.3/../../../arm-none-eabi/lib/armv7e-m/fpu/libg.a(lib_a-mallocr.o)
__malloc_max_total_mem                            /usr/lib/gcc/arm-none-eabi/4.9.3/../../../arm-none-eabi/lib/armv7e-m/fpu/libg.a(lib_a-mallocr.o)
__malloc_sbrk_base                                /usr/lib/gcc/arm-none-eabi/4.9.3/../../../arm-none-eabi/lib/armv7e-m/fpu/libg.a(lib_a-mallocr.o)
                                                  /usr/lib/gcc/arm-none-eabi/4.9.3/../../../arm-none-eabi/lib/armv7e-m/fpu/libg.a(lib_a-freer.o)
__malloc_top_pad                                  /usr/lib/gcc/arm-none-eabi/4.9.3/../../../arm-none-eabi/lib/armv7e-m/fpu/libg.a(lib_a-mallocr.o)
                                                  /usr/lib/gcc/arm-none-eabi/4.9.3/../../../arm-none-eabi/lib/armv7e-m/fpu/libg.a(lib_a-freer.o)
__malloc_trim_threshold                           /usr/lib/gcc/arm-none-eabi/4.9.3/../../../arm-none-eabi/lib/armv7e-m/fpu/libg.a(lib_a-mallocr.o)
                                                  /usr/lib/gcc/arm-none-eabi/4.9.3/../../../arm-none-eabi/lib/armv7e-m/fpu/libg.a(lib_a-freer.o)
__malloc_unlock                                   /usr/lib/gcc/arm-none-eabi/4.9.3/../../../arm-none-eabi/lib/armv7e-m/fpu/libg.a(lib_a-mlock.o)
                                                  /usr/lib/gcc/arm-none-eabi/4.9.3/../../../arm-none-eabi/lib/armv7e-m/fpu/libg.a(lib_a-freer.o)
                                                  /usr/lib/gcc/arm-none-eabi/4.9.3/../../../arm-none-eabi/lib/armv7e-m/fpu/libg.a(lib_a-mallocr.o)
_close                                            build/objs/syscalls.o
_ebss                                             build/objs/startup_stm32f407xx.o
_edata                                            build/objs/startup_stm32f407xx.o
_estack                                           build/objs/startup_stm32f407xx.o
_execve                                           build/objs/syscalls.o
_exit                                             build/objs/syscalls.o
_fork                                             build/objs/syscalls.o
_free_r                                           /usr/lib/gcc/arm-none-eabi/4.9.3/../../../arm-none-eabi/lib/armv7e-m/fpu/libg.a(lib_a-freer.o)
                                                  /usr/lib/gcc/arm-none-eabi/4.9.3/../../../arm-none-eabi/lib/armv7e-m/fpu/libg.a(lib_a-reent.o)
                                                  /usr/lib/gcc/arm-none-eabi/4.9.3/../../../arm-none-eabi/lib/armv7e-m/fpu/libg.a(lib_a-mallocr.o)
                                                  /usr/lib/gcc/arm-none-eabi/4.9.3/../../../arm-none-eabi/lib/armv7e-m/fpu/libg.a(lib_a-malloc.o)
_fstat                                            build/objs/syscalls.o
_getpid                                           build/objs/syscalls.o
_gettimeofday                                     build/objs/syscalls.o
_global_impure_ptr                                /usr/lib/gcc/arm-none-eabi/4.9.3/../../../arm-none-eabi/lib/armv7e-m/fpu/libg.a(lib_a-impure.o)
_impure_ptr                                       /usr/lib/gcc/arm-none-eabi/4.9.3/../../../arm-none-eabi/lib/armv7e-m/fpu/libg.a(lib_a-impure.o)
                                                  /usr/lib/gcc/arm-none-eabi/4.9.3/../../../arm-none-eabi/lib/armv7e-m/fpu/libg.a(lib_a-reent.o)
                                                  /usr/lib/gcc/arm-none-eabi/4.9.3/../../../arm-none-eabi/lib/armv7e-m/fpu/libg.a(lib_a-malloc.o)
                                                  /usr/lib/gcc/arm-none-eabi/4.9.3/../../../arm-none-eabi/lib/armv7e-m/fpu/libg.a(lib_a-errno.o)
_isatty                                           build/objs/syscalls.o
_kill                                             build/objs/syscalls.o
_link                                             build/objs/syscalls.o
_lseek                                            build/objs/syscalls.o
_malloc_r                                         /usr/lib/gcc/arm-none-eabi/4.9.3/../../../arm-none-eabi/lib/armv7e-m/fpu/libg.a(lib_a-mallocr.o)
                                                  /usr/lib/gcc/arm-none-eabi/4.9.3/../../../arm-none-eabi/lib/armv7e-m/fpu/libg.a(lib_a-malloc.o)
_malloc_trim_r                                    /usr/lib/gcc/arm-none-eabi/4.9.3/../../../arm-none-eabi/lib/armv7e-m/fpu/libg.a(lib_a-freer.o)
_open                                             build/objs/syscalls.o
_read                                             build/objs/syscalls.o
_reclaim_reent                                    /usr/lib/gcc/arm-none-eabi/4.9.3/../../../arm-none-eabi/lib/armv7e-m/fpu/libg.a(lib_a-reent.o)
_sbrk                                             build/objs/syscalls.o
                                                  /usr/lib/gcc/arm-none-eabi/4.9.3/../../../arm-none-eabi/lib/armv7e-m/fpu/libg.a(lib_a-sbrkr.o)
_sbrk_r                                           /usr/lib/gcc/arm-none-eabi/4.9.3/../../../arm-none-eabi/lib/armv7e-m/fpu/libg.a(lib_a-sbrkr.o)
                                                  /usr/lib/gcc/arm-none-eabi/4.9.3/../../../arm-none-eabi/lib/armv7e-m/fpu/libg.a(lib_a-freer.o)
                                                  /usr/lib/gcc/arm-none-eabi/4.9.3/../../../arm-none-eabi/lib/armv7e-m/fpu/libg.a(lib_a-mallocr.o)
_sbss                                             build/objs/startup_stm32f407xx.o
_sdata                                            build/objs/startup_stm32f407xx.o
_sidata                                           build/objs/startup_stm32f407xx.o
_stat                                             build/objs/syscalls.o
_times                                            build/objs/syscalls.o
_unlink                                           build/objs/syscalls.o
_wait                                             build/objs/syscalls.o
_write                                            build/objs/syscalls.o
brightness_levels                                 build/objs/pcd8544.o
cleanup_glue                                      /usr/lib/gcc/arm-none-eabi/4.9.3/../../../arm-none-eabi/lib/armv7e-m/fpu/libg.a(lib_a-reent.o)
end                                               build/objs/syscalls.o
errno                                             /usr/lib/gcc/arm-none-eabi/4.9.3/../../../arm-none-eabi/lib/armv7e-m/fpu/libg.a(lib_a-reent.o)
                                                  /usr/lib/gcc/arm-none-eabi/4.9.3/../../../arm-none-eabi/lib/armv7e-m/fpu/libg.a(lib_a-sbrkr.o)
free                                              /usr/lib/gcc/arm-none-eabi/4.9.3/../../../arm-none-eabi/lib/armv7e-m/fpu/libg.a(lib_a-malloc.o)
                                                  build/objs/usbd_cdc.o
g_pfnVectors                                      build/objs/startup_stm32f407xx.o
hSPI                                              build/objs/pcd8544.o
hTIM                                              build/objs/pcd8544.o
hUsbDeviceFS                                      build/objs/usb_device.o
                                                  build/objs/main.o
                                                  build/objs/usbd_cdc_if.o
hUsbDevice_0                                      build/objs/usbd_cdc_if.o
hpcd_USB_OTG_FS                                   build/objs/usbd_conf.o
                                                  build/objs/stm32f4xx_it.o
initialise_monitor_handles                        build/objs/syscalls.o
linecoding                                        build/objs/usbd_cdc_if_template.o
main                                              build/objs/main.o
                                                  build/objs/startup_stm32f407xx.o
malloc                                            /usr/lib/gcc/arm-none-eabi/4.9.3/../../../arm-none-eabi/lib/armv7e-m/fpu/libg.a(lib_a-malloc.o)
                                                  build/objs/usbd_cdc.o
pFlash                                            build/objs/stm32f4xx_hal_flash.o
                                                  build/objs/stm32f4xx_hal_flash_ex.o
uwTick                                            build/objs/stm32f4xx_hal.o
